 rsa_keygen

 Timestamp is 58ef7ae5 (Thu Apr 13 16:19:33 2017)

 Preferred load address is 10000000

 Start         Length     Name                   Class
 0001:00000000 00011a97H .text$mn                CODE
 0002:00000000 00000128H .idata$5                DATA
 0002:00000128 00000004H .00cfg                  DATA
 0002:0000012c 00000004H .CRT$XCA                DATA
 0002:00000130 00000004H .CRT$XCU                DATA
 0002:00000134 00000004H .CRT$XCZ                DATA
 0002:00000138 00000004H .CRT$XIA                DATA
 0002:0000013c 0000000cH .CRT$XIC                DATA
 0002:00000148 00000004H .CRT$XIZ                DATA
 0002:0000014c 00000004H .CRT$XPA                DATA
 0002:00000150 00000008H .CRT$XPX                DATA
 0002:00000158 00000004H .CRT$XPXA               DATA
 0002:0000015c 00000004H .CRT$XPZ                DATA
 0002:00000160 00000004H .CRT$XTA                DATA
 0002:00000164 0000000cH .CRT$XTZ                DATA
 0002:00000170 00005bc0H .rdata                  DATA
 0002:00005d24 00000000H .rdata$r                DATA
 0002:00005d30 0000000cH .rdata$sxdata           DATA
 0002:00005d3c 000003a4H .rdata$zzzdbg           DATA
 0002:000060e0 00000004H .rtc$IAA                DATA
 0002:000060e4 00000004H .rtc$IZZ                DATA
 0002:000060e8 00000004H .rtc$TAA                DATA
 0002:000060ec 00000004H .rtc$TZZ                DATA
 0002:000060f0 0000040cH .xdata$x                DATA
 0002:000064fc 00000020H .didat$2                DATA
 0002:0000651c 00000020H .didat$3                DATA
 0002:0000653c 000000a8H .didat$4                DATA
 0002:000065e4 00000854H .didat$6                DATA
 0002:00006e38 000000a8H .didat$7                DATA
 0002:00006ee0 00000058H .edata                  DATA
 0002:00006f38 00000014H .idata$2                DATA
 0002:00006f4c 00000014H .idata$3                DATA
 0002:00006f60 00000128H .idata$4                DATA
 0002:00007088 0000055aH .idata$6                DATA
 0003:00000000 000007c4H .data                   DATA
 0003:000007c4 00000000H .data$r                 DATA
 0003:000007c4 000000acH .didat$5                DATA
 0003:00000870 00000a3cH .bss                    DATA
 0004:00000000 00000090H .gfids$x                DATA
 0004:00000090 00000014H .gfids$y                DATA
 0005:00000000 00000060H .rsrc$01                DATA
 0005:00000060 00000180H .rsrc$02                DATA

  Address         Publics by Value              Rva+Base       Lib:Object

 0000:00000000       ___guard_fids_count        00000000     <absolute>
 0000:00000000       ___guard_longjmp_count     00000000     <absolute>
 0000:00000000       __except_list              00000000     <absolute>
 0000:00000000       ___guard_longjmp_table     00000000     <absolute>
 0000:00000000       ___guard_iat_table         00000000     <absolute>
 0000:00000000       ___guard_iat_count         00000000     <absolute>
 0000:00000000       ___guard_fids_table        00000000     <absolute>
 0000:00000000       ___dynamic_value_reloc_table 00000000     <absolute>
 0000:00000003       ___safe_se_handler_count   00000003     <absolute>
 0000:00000100       ___guard_flags             00000100     <absolute>
 0000:00000000       ___ImageBase               10000000     <linker-defined>
 0001:000000a0       ?Set@Nan@@YA?AV?$Maybe@_N@v8@@V?$Local@VObject@v8@@@3@V?$Local@VValue@v8@@@3@1@Z 100010a0 f i rsa_keygen.obj
 0001:000000e0       ?New@?$Factory@VFunctionTemplate@v8@@@imp@Nan@@SA?AV?$Local@VFunctionTemplate@v8@@@v8@@P6AXABV?$FunctionCallbackInfo@VValue@v8@@@3@@ZV?$Local@VValue@v8@@@5@V?$Local@VSignature@v8@@@5@@Z 100010e0 f i rsa_keygen.obj
 0001:000001e0       ?ThrowError@Nan@@YAXPBD@Z  100011e0 f i rsa_keygen.obj
 0001:00000260       ?ThrowTypeError@Nan@@YAXPBD@Z 10001260 f i rsa_keygen.obj
 0001:000003b0       ?Generate@@YAXABV?$FunctionCallbackInfo@VValue@v8@@@Nan@@@Z 100013b0 f   rsa_keygen.obj
 0001:000006e0       ?InitAll@@YAXV?$Local@VObject@v8@@@v8@@@Z 100016e0 f   rsa_keygen.obj
 0001:000007fb       __imp_load_?Value@External@v8@@QBEPAXXZ 100017fb f   node:node.exe
 0001:00000805       __tailMerge_node_exe       10001805 f i node:node.exe
 0001:00000816       __imp_load_?New@External@v8@@SA?AV?$Local@VExternal@v8@@@2@PAVIsolate@2@PAX@Z 10001816 f   node:node.exe
 0001:00000820       __imp_load_?ThrowException@Isolate@v8@@QAE?AV?$Local@VValue@v8@@@2@V32@@Z 10001820 f   node:node.exe
 0001:0000082a       __imp_load_?GetCurrentContext@Isolate@v8@@QAE?AV?$Local@VContext@v8@@@2@XZ 1000182a f   node:node.exe
 0001:00000834       __imp_load_?GetCurrent@Isolate@v8@@SAPAV12@XZ 10001834 f   node:node.exe
 0001:0000083e       __imp_load_?CreateHandle@HandleScope@v8@@KAPAPAVObject@internal@2@PAVIsolate@42@PAV342@@Z 1000183e f   node:node.exe
 0001:00000848       __imp_load_?CreateHandle@HandleScope@v8@@CAPAPAVObject@internal@2@PAVHeapObject@42@PAV342@@Z 10001848 f   node:node.exe
 0001:00000852       __imp_load_??1HandleScope@v8@@QAE@XZ 10001852 f   node:node.exe
 0001:0000085c       __imp_load_??0HandleScope@v8@@QAE@PAVIsolate@1@@Z 1000185c f   node:node.exe
 0001:00000866       __imp_load_?Error@Exception@v8@@SA?AV?$Local@VValue@v8@@@2@V?$Local@VString@v8@@@2@@Z 10001866 f   node:node.exe
 0001:00000870       __imp_load_?TypeError@Exception@v8@@SA?AV?$Local@VValue@v8@@@2@V?$Local@VString@v8@@@2@@Z 10001870 f   node:node.exe
 0001:0000087a       __imp_load_?GetFunction@FunctionTemplate@v8@@QAE?AV?$MaybeLocal@VFunction@v8@@@2@V?$Local@VContext@v8@@@2@@Z 1000187a f   node:node.exe
 0001:00000884       __imp_load_?New@FunctionTemplate@v8@@SA?AV?$Local@VFunctionTemplate@v8@@@2@PAVIsolate@2@P6AXABV?$FunctionCallbackInfo@VValue@v8@@@2@@ZV?$Local@VValue@v8@@@2@V?$Local@VSignature@v8@@@2@H@Z 10001884 f   node:node.exe
 0001:0000088e       __imp_load_?ToLocalEmpty@V8@v8@@CAXXZ 1000188e f   node:node.exe
 0001:00000898       __imp_load_?IsInt32@Value@v8@@QBE_NXZ 10001898 f   node:node.exe
 0001:000008a2       __imp_load_?Escape@EscapableHandleScope@v8@@AAEPAPAVObject@internal@2@PAPAV342@@Z 100018a2 f   node:node.exe
 0001:000008ac       __imp_load_??0EscapableHandleScope@v8@@QAE@PAVIsolate@1@@Z 100018ac f   node:node.exe
 0001:000008b6       __imp_load_?NewFromUtf8@String@v8@@SA?AV?$MaybeLocal@VString@v8@@@2@PAVIsolate@2@PBDW4NewStringType@2@H@Z 100018b6 f   node:node.exe
 0001:000008c0       __imp_load_?Value@Int32@v8@@QBEHXZ 100018c0 f   node:node.exe
 0001:000008ca       __imp_load_?SlowGetInternalField@Object@v8@@AAE?AV?$Local@VValue@v8@@@2@H@Z 100018ca f   node:node.exe
 0001:000008d4       __imp_load_?New@Object@v8@@SA?AV?$Local@VObject@v8@@@2@PAVIsolate@2@@Z 100018d4 f   node:node.exe
 0001:000008de       __imp_load_?SetInternalField@Object@v8@@QAEXHV?$Local@VValue@v8@@@2@@Z 100018de f   node:node.exe
 0001:000008e8       __imp_load_?Set@Object@v8@@QAE?AV?$Maybe@_N@2@V?$Local@VContext@v8@@@2@V?$Local@VValue@v8@@@2@1@Z 100018e8 f   node:node.exe
 0001:000008f2       __imp_load_?SetInternalFieldCount@ObjectTemplate@v8@@QAEXH@Z 100018f2 f   node:node.exe
 0001:000008fc       __imp_load_?NewInstance@ObjectTemplate@v8@@QAE?AV?$MaybeLocal@VObject@v8@@@2@V?$Local@VContext@v8@@@2@@Z 100018fc f   node:node.exe
 0001:00000906       __imp_load_?New@ObjectTemplate@v8@@SA?AV?$Local@VObjectTemplate@v8@@@2@PAVIsolate@2@V?$Local@VFunctionTemplate@v8@@@2@@Z 10001906 f   node:node.exe
 0001:00000910       __imp_load__BIO_vfree      10001910 f   node:node.exe
 0001:0000091a       __imp_load__PEM_write_bio_RSAPrivateKey 1000191a f   node:node.exe
 0001:00000924       __imp_load__node_module_register 10001924 f   node:node.exe
 0001:0000092e       __imp_load_?Copy@Buffer@node@@YA?AV?$MaybeLocal@VObject@v8@@@v8@@PAVIsolate@4@PBDI@Z 1000192e f   node:node.exe
 0001:00000938       __imp_load__BN_new         10001938 f   node:node.exe
 0001:00000942       __imp_load__BIO_s_mem      10001942 f   node:node.exe
 0001:0000094c       __imp_load__BN_set_word    1000194c f   node:node.exe
 0001:00000956       __imp_load__BN_free        10001956 f   node:node.exe
 0001:00000960       __imp_load__PEM_write_bio_RSA_PUBKEY 10001960 f   node:node.exe
 0001:0000096a       __imp_load__RSA_free       1000196a f   node:node.exe
 0001:00000974       __imp_load__RSA_new        10001974 f   node:node.exe
 0001:0000097e       __imp_load__BIO_ctrl       1000197e f   node:node.exe
 0001:00000988       __imp_load__BIO_new        10001988 f   node:node.exe
 0001:00000992       __imp_load__RSA_generate_key_ex 10001992 f   node:node.exe
 0001:0000099c       __imp_load_?ToInt32@Value@v8@@QBE?AV?$Local@VInt32@v8@@@2@XZ 1000199c f   node:node.exe
 0001:000009a6       @__security_check_cookie@4 100019a6 f   LIBCMT:_secchk_.obj
 0001:00000cbf       __DllMainCRTStartup@12     10001cbf f   LIBCMT:dll_dllmain.obj
 0001:00000ce2       ___raise_securityfailure   10001ce2 f   LIBCMT:gs_report.obj
 0001:00000d0a       ___report_gsfailure        10001d0a f   LIBCMT:gs_report.obj
 0001:00000e49       ___scrt_acquire_startup_lock 10001e49 f   LIBCMT:utility.obj
 0001:00000e7e       ___scrt_dllmain_after_initialize_c 10001e7e f   LIBCMT:utility.obj
 0001:00000ea9       ___scrt_dllmain_before_initialize_c 10001ea9 f   LIBCMT:utility.obj
 0001:00000eb7       ___scrt_dllmain_crt_thread_attach 10001eb7 f   LIBCMT:utility.obj
 0001:00000ed6       ___scrt_dllmain_crt_thread_detach 10001ed6 f   LIBCMT:utility.obj
 0001:00000ee3       ___scrt_dllmain_exception_filter 10001ee3 f   LIBCMT:utility.obj
 0001:00000f16       ___scrt_dllmain_uninitialize_c 10001f16 f   LIBCMT:utility.obj
 0001:00000f39       ___scrt_dllmain_uninitialize_critical 10001f39 f   LIBCMT:utility.obj
 0001:00000f46       ___scrt_initialize_crt     10001f46 f   LIBCMT:utility.obj
 0001:00000f7f       ___scrt_initialize_onexit_tables 10001f7f f   LIBCMT:utility.obj
 0001:00001016       ___scrt_is_nonwritable_in_current_image 10002016 f   LIBCMT:utility.obj
 0001:000010a0       ___scrt_release_startup_lock 100020a0 f   LIBCMT:utility.obj
 0001:000010bd       ___scrt_uninitialize_crt   100020bd f   LIBCMT:utility.obj
 0001:000010e5       __onexit                   100020e5 f   LIBCMT:utility.obj
 0001:00001120       _atexit                    10002120 f   LIBCMT:utility.obj
 0001:00001135       ___security_init_cookie    10002135 f   LIBCMT:gs_support.obj
 0001:000011d1       _DllMain@12                100021d1 f   LIBCMT:dll_dllmain_stub.obj
 0001:000011d7       ?__scrt_initialize_type_info@@YAXXZ 100021d7 f   LIBCMT:tncleanup.obj
 0001:000011e3       ?__scrt_uninitialize_type_info@@YAXXZ 100021e3 f   LIBCMT:tncleanup.obj
 0001:000011ef       ___local_stdio_printf_options 100021ef f i LIBCMT:default_local_stdio_options.obj
 0001:000011f5       ___local_stdio_scanf_options 100021f5 f i LIBCMT:default_local_stdio_options.obj
 0001:000011fb       ___scrt_initialize_default_local_stdio_options 100021fb f   LIBCMT:default_local_stdio_options.obj
 0001:00001218       ___scrt_get_dyn_tls_init_callback 10002218 f   LIBCMT:dyn_tls_init.obj
 0001:0000121e       ___scrt_fastfail           1000221e f   LIBCMT:utility_desktop.obj
 0001:00001339       __crt_debugger_hook        10002339 f   LIBCMT:utility_desktop.obj
 0001:00001341       __RTC_Initialize           10002341 f   LIBCMT:_initsect_.obj
 0001:0000136c       __RTC_Terminate            1000236c f   LIBCMT:_initsect_.obj
 0001:00001397       @_guard_check_icall@4      10002397 f i LIBCMT:checkcfg.obj
 0001:000013a0       __SEH_prolog4              100023a0 f   LIBCMT:_sehprolg4_.obj
 0001:000013e6       __SEH_epilog4              100023e6 f   LIBCMT:_sehprolg4_.obj
 0001:000013fb       ___isa_available_init      100023fb f   LIBCMT:_cpu_disp_.obj
 0001:00001595       __get_startup_argv_mode    10002595 f   LIBCMT:argv_mode.obj
 0001:00001599       ___scrt_is_ucrt_dll_in_use 10002599 f   LIBCMT:ucrt_detection.obj
 0001:000015f0       __except_handler4          100025f0 f   libvcruntime:_chandler4_.obj
 0001:00001756       ___vcrt_initialize         10002756 f   libvcruntime:initialization.obj
 0001:0000177f       ___vcrt_thread_attach      1000277f f   libvcruntime:initialization.obj
 0001:0000178a       ___vcrt_thread_detach      1000278a f   libvcruntime:initialization.obj
 0001:00001795       ___vcrt_uninitialize       10002795 f   libvcruntime:initialization.obj
 0001:000017b4       ___vcrt_uninitialize_critical 100027b4 f   libvcruntime:initialization.obj
 0001:000017bc       ___std_type_info_destroy_list 100027bc f   libvcruntime:std_type_info.obj
 0001:000017e0       _memset                    100027e0 f   libvcruntime:memset.obj
 0001:00001940       __local_unwind4            10002940 f   libvcruntime:_exsup4_.obj
 0001:00001a16       __seh_longjmp_unwind4@4    10002a16 f   libvcruntime:_exsup4_.obj
 0001:00001a3e       @_EH4_CallFilterFunc@8     10002a3e f   libvcruntime:_exsup4_.obj
 0001:00001a55       @_EH4_TransferToHandler@8  10002a55 f   libvcruntime:_exsup4_.obj
 0001:00001a6e       @_EH4_GlobalUnwind2@8      10002a6e f   libvcruntime:_exsup4_.obj
 0001:00001a87       @_EH4_LocalUnwind@16       10002a87 f   libvcruntime:_exsup4_.obj
 0001:00001a9e       ___except_validate_context_record 10002a9e f   libvcruntime:jbcxrval.obj
 0001:00001a9e       @_guard_check_icall_nop@4  10002a9e f   LIBCMT:guard_support.obj
 0001:00001a9e       ___except_validate_jump_buffer 10002a9e f   libvcruntime:jbcxrval.obj
 0001:00001a9f       ___vcrt_freefls@4          10002a9f f   libvcruntime:per_thread_data.obj
 0001:00001abb       ___vcrt_freeptd            10002abb f   libvcruntime:per_thread_data.obj
 0001:00001af1       ___vcrt_getptd_noexit      10002af1 f   libvcruntime:per_thread_data.obj
 0001:00001b83       ___vcrt_initialize_ptd     10002b83 f   libvcruntime:per_thread_data.obj
 0001:00001bb6       ___vcrt_uninitialize_ptd   10002bb6 f   libvcruntime:per_thread_data.obj
 0001:00001bd1       ___vcrt_initialize_locks   10002bd1 f   libvcruntime:locks.obj
 0001:00001c0d       ___vcrt_uninitialize_locks 10002c0d f   libvcruntime:locks.obj
 0001:00001c3c       ??$__crt_fast_encode_pointer@PAP6AXXZ@@YAPAP6AXXZQAP6AXXZ@Z 10002c3c f i LIBCMT:utility.obj
 0001:00001c3c       ??$__crt_fast_encode_pointer@PAX@@YAPAXQAX@Z 10002c3c f i libvcruntime:winapi_downlevel.obj
 0001:00001d7a       ___vcrt_FlsAlloc           10002d7a f   libvcruntime:winapi_downlevel.obj
 0001:00001db4       ___vcrt_FlsFree            10002db4 f   libvcruntime:winapi_downlevel.obj
 0001:00001dee       ___vcrt_FlsGetValue        10002dee f   libvcruntime:winapi_downlevel.obj
 0001:00001e28       ___vcrt_FlsSetValue        10002e28 f   libvcruntime:winapi_downlevel.obj
 0001:00001e65       ___vcrt_InitializeCriticalSectionEx 10002e65 f   libvcruntime:winapi_downlevel.obj
 0001:00001eab       ___vcrt_initialize_winapi_thunks 10002eab f   libvcruntime:winapi_downlevel.obj
 0001:00001ee5       ___vcrt_uninitialize_winapi_thunks 10002ee5 f   libvcruntime:winapi_downlevel.obj
 0001:00001f17       ___vcrt_initialize_pure_virtual_call_handler 10002f17 f   libvcruntime:purevirt_data.obj
 0001:00001f40       __global_unwind2           10002f40 f   libvcruntime:_exsup_.obj
 0001:00001fa5       __local_unwind2            10002fa5 f   libvcruntime:_exsup_.obj
 0001:00002029       __abnormal_termination     10003029 f   libvcruntime:_exsup_.obj
 0001:0000204c       __NLG_Notify1              1000304c f   libvcruntime:_exsup_.obj
 0001:00002055       __NLG_Notify               10003055 f   libvcruntime:_exsup_.obj
 0001:0000206c       __NLG_Dispatch             1000306c     libvcruntime:_exsup_.obj
 0001:0000206c       __NLG_Dispatch2            1000306c     libvcruntime:_exsup_.obj
 0001:00002074       __NLG_Call                 10003074 f   libvcruntime:_exsup_.obj
 0001:00002076       __NLG_Return2              10003076     libvcruntime:_exsup_.obj
 0001:000026db       ??$ftprintf@PAU_iobuf@@PB_WABQB_WABQB_WABI@?$__crt_char_traits@_W@@SAH$$QAPAU_iobuf@@$$QAPB_WABQB_W2ABI@Z 100036db f i libucrt:assert.obj
 0001:000027ba       __vfwprintf_l              100037ba f i libucrt:assert.obj
 0001:000027df       __vswprintf_c_l            100037df f i libucrt:assert.obj
 0001:0000280e       __wassert                  1000380e f   libucrt:assert.obj
 0001:00002856       _fwprintf                  10003856 f i libucrt:assert.obj
 0001:00002871       _swprintf                  10003871 f i libucrt:assert.obj
 0001:0000288f       ??0_LocaleUpdate@@QAE@QAU__crt_locale_pointers@@@Z 1000388f f i libucrt:stricmp.obj
 0001:00002912       ___ascii_stricmp           10003912 f   libucrt:stricmp.obj
 0001:0000294d       __stricmp                  1000394d f   libucrt:stricmp.obj
 0001:00002995       __stricmp_l                10003995 f   libucrt:stricmp.obj
 0001:00002a2f       __initterm                 10003a2f f   libucrt:initterm.obj
 0001:00002a8b       __initterm_e               10003a8b f   libucrt:initterm.obj
 0001:00002ad0       __seh_filter_dll           10003ad0 f   libucrt:exception_filter.obj
 0001:00002af0       __seh_filter_exe           10003af0 f   libucrt:exception_filter.obj
 0001:00002e7e       ___acrt_initialize_thread_local_exit_callback 10003e7e f   libucrt:exit.obj
 0001:00002e8d       __cexit                    10003e8d f   libucrt:exit.obj
 0001:00002e9c       __exit                     10003e9c f   libucrt:exit.obj
 0001:00002eb2       __is_c_termination_complete 10003eb2 f   libucrt:exit.obj
 0001:00003151       ___acrt_allocate_buffer_for_argv 10004151 f   libucrt:argv_parsing.obj
 0001:000031a6       __configure_narrow_argv    100041a6 f   libucrt:argv_parsing.obj
 0001:0000330a       ??$uninitialize@A6AXAAPAPAD@Z@?$dual_state_global@PAPAD@__crt_state_management@@QAEXA6AXAAPAPAD@Z@Z 1000430a f i libucrt:environment_initialization.obj
 0001:0000330a       ??$uninitialize@A6AXAAPAPA_W@Z@?$dual_state_global@PAPA_W@__crt_state_management@@QAEXA6AXAAPAPA_W@Z@Z 1000430a f i libucrt:environment_initialization.obj
 0001:00003380       ___dcrt_uninitialize_environments_nolock 10004380 f   libucrt:environment_initialization.obj
 0001:000033b7       __initialize_narrow_environment 100043b7 f   libucrt:environment_initialization.obj
 0001:000033bc       ??$?RV<lambda_800076c951b434888f4765a74a194fcc>@@AAV<lambda_4e60a939b0d047cfe11ddc22648dfba9>@@V<lambda_6dbb1268764f43b569ce7b67e331d33a>@@@?$__crt_seh_guarded_call@H@@QAEH$$QAV<lambda_800076c951b434888f4765a74a194fcc>@@AAV<lambda_4e60a939b0d047cfe11ddc22648dfba9>@@$$QAV<lambda_6dbb1268764f43b569ce7b67e331d33a>@@@Z 100043bc f i libucrt:onexit.obj
 0001:0000340d       ??$?RV<lambda_995298e7d72eb4c2aab26c0585b3abe5>@@AAV<lambda_275893d493268fdec8709772e3fcec0e>@@V<lambda_293819299cbf9a7022e18b56a874bb5c>@@@?$__crt_seh_guarded_call@H@@QAEH$$QAV<lambda_995298e7d72eb4c2aab26c0585b3abe5>@@AAV<lambda_275893d493268fdec8709772e3fcec0e>@@$$QAV<lambda_293819299cbf9a7022e18b56a874bb5c>@@@Z 1000440d f i libucrt:onexit.obj
 0001:0000345e       ??$__acrt_lock_and_call@V<lambda_275893d493268fdec8709772e3fcec0e>@@@@YAHW4__acrt_lock_id@@$$QAV<lambda_275893d493268fdec8709772e3fcec0e>@@@Z 1000445e f i libucrt:onexit.obj
 0001:00003486       ??$__acrt_lock_and_call@V<lambda_4e60a939b0d047cfe11ddc22648dfba9>@@@@YAHW4__acrt_lock_id@@$$QAV<lambda_4e60a939b0d047cfe11ddc22648dfba9>@@@Z 10004486 f i libucrt:onexit.obj
 0001:000034ae       ??$__crt_fast_encode_pointer@P6AHXZ@@YAP6AHXZQ6AHXZ@Z 100044ae f i libucrt:onexit.obj
 0001:0000372e       __crt_atexit               1000472e f   libucrt:onexit.obj
 0001:00003744       __execute_onexit_table     10004744 f   libucrt:onexit.obj
 0001:00003761       __initialize_onexit_table  10004761 f   libucrt:onexit.obj
 0001:0000379e       __register_onexit_function 1000479e f   libucrt:onexit.obj
 0001:000037ee       ___acrt_uninitialize_command_line 100047ee f   libucrt:argv_data.obj
 0001:000038b6       ___acrt_initialize         100048b6 f   libucrt:initialization.obj
 0001:000038c8       ___acrt_thread_attach      100048c8 f   libucrt:initialization.obj
 0001:000038d3       ___acrt_thread_detach      100048d3 f   libucrt:initialization.obj
 0001:000038db       ___acrt_uninitialize       100048db f   libucrt:initialization.obj
 0001:000038ed       ___acrt_uninitialize_critical 100048ed f   libucrt:initialization.obj
 0001:000038ff       _terminate                 100048ff f   libucrt:terminate.obj
 0001:0000393b       __free_base                1000493b f   libucrt:free_base.obj
 0001:00003975       __malloc_base              10004975 f   libucrt:malloc_base.obj
 0001:000039c3       _strcpy_s                  100049c3 f   libucrt:strcpy_s.obj
 0001:00003a1d       _abort                     10004a1d f   libucrt:abort.obj
 0001:00003a60       __calloc_base              10004a60 f   libucrt:calloc_base.obj
 0001:00003abd       ??$?RV<lambda_ab9923ffb5d694ec0d78876dd103e44f>@@AAV<lambda_481dd5778c961fbcd3b60b650e9b9dc4>@@V<lambda_7923d86c9e3f319b415918ec4b39749c>@@@?$__crt_seh_guarded_call@H@@QAEH$$QAV<lambda_ab9923ffb5d694ec0d78876dd103e44f>@@AAV<lambda_481dd5778c961fbcd3b60b650e9b9dc4>@@$$QAV<lambda_7923d86c9e3f319b415918ec4b39749c>@@@Z 10004abd f i libucrt:output.obj
 0001:00003b0e       ??$__acrt_lock_stream_and_call@V<lambda_481dd5778c961fbcd3b60b650e9b9dc4>@@@@YAHQAU_iobuf@@$$QAV<lambda_481dd5778c961fbcd3b60b650e9b9dc4>@@@Z 10004b0e f i libucrt:output.obj
 0001:00003cbb       ??$count@D@formatting_buffer@__crt_stdio_output@@QBEIXZ 10004cbb f i libucrt:output.obj
 0001:00003cd3       ??$ensure_buffer_is_big_enough@D@formatting_buffer@__crt_stdio_output@@QAE_NI@Z 10004cd3 f i libucrt:output.obj
 0001:00003d59       ??$is_wide_character_specifier@_W@__crt_stdio_output@@YA_N_K_WW4length_modifier@0@@Z 10004d59 f i libucrt:output.obj
 0001:00003da8       ??$scratch_data@D@formatting_buffer@__crt_stdio_output@@QAEPADXZ 10004da8 f i libucrt:output.obj
 0001:00003dc6       ??$type_case_integer_parse_into_buffer@I@?$output_processor@_WV?$string_output_adapter@_W@__crt_stdio_output@@V?$standard_base@_WV?$string_output_adapter@_W@__crt_stdio_output@@@2@@__crt_stdio_output@@AAEXII_N@Z 10004dc6 f i libucrt:output.obj
 0001:00003dc6       ??$type_case_integer_parse_into_buffer@I@?$output_processor@_WV?$stream_output_adapter@_W@__crt_stdio_output@@V?$standard_base@_WV?$stream_output_adapter@_W@__crt_stdio_output@@@2@@__crt_stdio_output@@AAEXII_N@Z 10004dc6 f i libucrt:output.obj
 0001:00003e3b       ??$type_case_integer_parse_into_buffer@_K@?$output_processor@_WV?$string_output_adapter@_W@__crt_stdio_output@@V?$standard_base@_WV?$string_output_adapter@_W@__crt_stdio_output@@@2@@__crt_stdio_output@@AAEX_KI_N@Z 10004e3b f i libucrt:output.obj
 0001:00003e3b       ??$type_case_integer_parse_into_buffer@_K@?$output_processor@_WV?$stream_output_adapter@_W@__crt_stdio_output@@V?$standard_base@_WV?$stream_output_adapter@_W@__crt_stdio_output@@@2@@__crt_stdio_output@@AAEX_KI_N@Z 10004e3b f i libucrt:output.obj
 0001:00003ec3       ??$write_multiple_characters@V?$stream_output_adapter@_W@__crt_stdio_output@@D@__crt_stdio_output@@YAXABV?$stream_output_adapter@_W@0@DHQAH@Z 10004ec3 f i libucrt:output.obj
 0001:00003ef4       ??$write_multiple_characters@V?$string_output_adapter@_W@__crt_stdio_output@@D@__crt_stdio_output@@YAXABV?$string_output_adapter@_W@0@DHQAH@Z 10004ef4 f i libucrt:output.obj
 0001:00003f25       ??0?$common_data@_W@__crt_stdio_output@@IAE@XZ 10004f25 f i libucrt:output.obj
 0001:00003f71       ??0?$output_adapter_data@_WV?$stream_output_adapter@_W@__crt_stdio_output@@@__crt_stdio_output@@IAE@ABV?$stream_output_adapter@_W@1@_KQB_WQAU__crt_locale_pointers@@QAD@Z 10004f71 f i libucrt:output.obj
 0001:00003f71       ??0?$output_adapter_data@_WV?$string_output_adapter@_W@__crt_stdio_output@@@__crt_stdio_output@@IAE@ABV?$string_output_adapter@_W@1@_KQB_WQAU__crt_locale_pointers@@QAD@Z 10004f71 f i libucrt:output.obj
 0001:00003fad       ??0?$output_processor@_WV?$string_output_adapter@_W@__crt_stdio_output@@V?$standard_base@_WV?$string_output_adapter@_W@__crt_stdio_output@@@2@@__crt_stdio_output@@QAE@ABV?$string_output_adapter@_W@1@_KQB_WQAU__crt_locale_pointers@@QAD@Z 10004fad f i libucrt:output.obj
 0001:00003fad       ??0?$output_processor@_WV?$stream_output_adapter@_W@__crt_stdio_output@@V?$standard_base@_WV?$stream_output_adapter@_W@__crt_stdio_output@@@2@@__crt_stdio_output@@QAE@ABV?$stream_output_adapter@_W@1@_KQB_WQAU__crt_locale_pointers@@QAD@Z 10004fad f i libucrt:output.obj
 0001:00003fe2       ??1formatting_buffer@__crt_stdio_output@@QAE@XZ 10004fe2 f i libucrt:output.obj
 0001:00003ffc       ??4?$__crt_unique_heap_ptr@DU__crt_internal_free_policy@@@@QAEAAV0@$$QAV0@@Z 10004ffc f i libucrt:output.obj
 0001:000040dd       ?crop_zeroes@__crt_stdio_output@@YAXPADQAU__crt_locale_pointers@@@Z 100050dd f i libucrt:output.obj
 0001:00004134       ?find_next_state@?$output_processor@_WV?$string_output_adapter@_W@__crt_stdio_output@@V?$standard_base@_WV?$string_output_adapter@_W@__crt_stdio_output@@@2@@__crt_stdio_output@@ABE?AW4state@2@_WW432@@Z 10005134 f i libucrt:output.obj
 0001:00004134       ?find_next_state@?$output_processor@_WV?$stream_output_adapter@_W@__crt_stdio_output@@V?$standard_base@_WV?$stream_output_adapter@_W@__crt_stdio_output@@@2@@__crt_stdio_output@@ABE?AW4state@2@_WW432@@Z 10005134 f i libucrt:output.obj
 0001:00004168       ?force_decimal_point@__crt_stdio_output@@YAXPADQAU__crt_locale_pointers@@@Z 10005168 f i libucrt:output.obj
 0001:000041c4       ?parse_int_from_format_string@?$output_processor@_WV?$string_output_adapter@_W@__crt_stdio_output@@V?$standard_base@_WV?$string_output_adapter@_W@__crt_stdio_output@@@2@@__crt_stdio_output@@AAE_NQAH@Z 100051c4 f i libucrt:output.obj
 0001:000041c4       ?parse_int_from_format_string@?$output_processor@_WV?$stream_output_adapter@_W@__crt_stdio_output@@V?$standard_base@_WV?$stream_output_adapter@_W@__crt_stdio_output@@@2@@__crt_stdio_output@@AAE_NQAH@Z 100051c4 f i libucrt:output.obj
 0001:00004222       ?process@?$output_processor@_WV?$stream_output_adapter@_W@__crt_stdio_output@@V?$standard_base@_WV?$stream_output_adapter@_W@__crt_stdio_output@@@2@@__crt_stdio_output@@QAEHXZ 10005222 f i libucrt:output.obj
 0001:00004342       ?process@?$output_processor@_WV?$string_output_adapter@_W@__crt_stdio_output@@V?$standard_base@_WV?$string_output_adapter@_W@__crt_stdio_output@@@2@@__crt_stdio_output@@QAEHXZ 10005342 f i libucrt:output.obj
 0001:00004462       ?state_case_flag@?$output_processor@_WV?$stream_output_adapter@_W@__crt_stdio_output@@V?$standard_base@_WV?$stream_output_adapter@_W@__crt_stdio_output@@@2@@__crt_stdio_output@@AAE_NXZ 10005462 f i libucrt:output.obj
 0001:00004462       ?state_case_flag@?$output_processor@_WV?$string_output_adapter@_W@__crt_stdio_output@@V?$standard_base@_WV?$string_output_adapter@_W@__crt_stdio_output@@@2@@__crt_stdio_output@@AAE_NXZ 10005462 f i libucrt:output.obj
 0001:0000449f       ?state_case_normal@?$output_processor@_WV?$stream_output_adapter@_W@__crt_stdio_output@@V?$standard_base@_WV?$stream_output_adapter@_W@__crt_stdio_output@@@2@@__crt_stdio_output@@AAE_NXZ 1000549f f i libucrt:output.obj
 0001:000044be       ?state_case_normal@?$output_processor@_WV?$string_output_adapter@_W@__crt_stdio_output@@V?$standard_base@_WV?$string_output_adapter@_W@__crt_stdio_output@@@2@@__crt_stdio_output@@AAE_NXZ 100054be f i libucrt:output.obj
 0001:000044dd       ?state_case_normal_common@?$output_processor@_WV?$stream_output_adapter@_W@__crt_stdio_output@@V?$standard_base@_WV?$stream_output_adapter@_W@__crt_stdio_output@@@2@@__crt_stdio_output@@AAE_NXZ 100054dd f i libucrt:output.obj
 0001:000044f8       ?state_case_normal_common@?$output_processor@_WV?$string_output_adapter@_W@__crt_stdio_output@@V?$standard_base@_WV?$string_output_adapter@_W@__crt_stdio_output@@@2@@__crt_stdio_output@@AAE_NXZ 100054f8 f i libucrt:output.obj
 0001:00004513       ?state_case_precision@?$output_processor@_WV?$stream_output_adapter@_W@__crt_stdio_output@@V?$standard_base@_WV?$stream_output_adapter@_W@__crt_stdio_output@@@2@@__crt_stdio_output@@AAE_NXZ 10005513 f i libucrt:output.obj
 0001:00004513       ?state_case_precision@?$output_processor@_WV?$string_output_adapter@_W@__crt_stdio_output@@V?$standard_base@_WV?$string_output_adapter@_W@__crt_stdio_output@@@2@@__crt_stdio_output@@AAE_NXZ 10005513 f i libucrt:output.obj
 0001:0000453c       ?state_case_size@?$output_processor@_WV?$stream_output_adapter@_W@__crt_stdio_output@@V?$standard_base@_WV?$stream_output_adapter@_W@__crt_stdio_output@@@2@@__crt_stdio_output@@AAE_NXZ 1000553c f i libucrt:output.obj
 0001:000046b8       ?state_case_size@?$output_processor@_WV?$string_output_adapter@_W@__crt_stdio_output@@V?$standard_base@_WV?$string_output_adapter@_W@__crt_stdio_output@@@2@@__crt_stdio_output@@AAE_NXZ 100056b8 f i libucrt:output.obj
 0001:00004834       ?state_case_type@?$output_processor@_WV?$stream_output_adapter@_W@__crt_stdio_output@@V?$standard_base@_WV?$stream_output_adapter@_W@__crt_stdio_output@@@2@@__crt_stdio_output@@AAE_NXZ 10005834 f i libucrt:output.obj
 0001:00004a91       ?state_case_type@?$output_processor@_WV?$string_output_adapter@_W@__crt_stdio_output@@V?$standard_base@_WV?$string_output_adapter@_W@__crt_stdio_output@@@2@@__crt_stdio_output@@AAE_NXZ 10005a91 f i libucrt:output.obj
 0001:00004cee       ?state_case_width@?$output_processor@_WV?$string_output_adapter@_W@__crt_stdio_output@@V?$standard_base@_WV?$string_output_adapter@_W@__crt_stdio_output@@@2@@__crt_stdio_output@@AAE_NXZ 10005cee f i libucrt:output.obj
 0001:00004cee       ?state_case_width@?$output_processor@_WV?$stream_output_adapter@_W@__crt_stdio_output@@V?$standard_base@_WV?$stream_output_adapter@_W@__crt_stdio_output@@@2@@__crt_stdio_output@@AAE_NXZ 10005cee f i libucrt:output.obj
 0001:00004d1a       ?to_integer_size@__crt_stdio_output@@YAIW4length_modifier@1@@Z 10005d1a f i libucrt:output.obj
 0001:00004d76       ?type_case_Z@?$output_processor@_WV?$stream_output_adapter@_W@__crt_stdio_output@@V?$standard_base@_WV?$stream_output_adapter@_W@__crt_stdio_output@@@2@@__crt_stdio_output@@AAE_NXZ 10005d76 f i libucrt:output.obj
 0001:00004d76       ?type_case_Z@?$output_processor@_WV?$string_output_adapter@_W@__crt_stdio_output@@V?$standard_base@_WV?$string_output_adapter@_W@__crt_stdio_output@@@2@@__crt_stdio_output@@AAE_NXZ 10005d76 f i libucrt:output.obj
 0001:00004dd9       ?type_case_a@?$output_processor@_WV?$stream_output_adapter@_W@__crt_stdio_output@@V?$standard_base@_WV?$stream_output_adapter@_W@__crt_stdio_output@@@2@@__crt_stdio_output@@AAE_NXZ 10005dd9 f i libucrt:output.obj
 0001:00004dd9       ?type_case_a@?$output_processor@_WV?$string_output_adapter@_W@__crt_stdio_output@@V?$standard_base@_WV?$string_output_adapter@_W@__crt_stdio_output@@@2@@__crt_stdio_output@@AAE_NXZ 10005dd9 f i libucrt:output.obj
 0001:00004f4b       ?type_case_c_tchar@?$output_processor@_WV?$stream_output_adapter@_W@__crt_stdio_output@@V?$standard_base@_WV?$stream_output_adapter@_W@__crt_stdio_output@@@2@@__crt_stdio_output@@AAE_N_W@Z 10005f4b f i libucrt:output.obj
 0001:00004f4b       ?type_case_c_tchar@?$output_processor@_WV?$string_output_adapter@_W@__crt_stdio_output@@V?$standard_base@_WV?$string_output_adapter@_W@__crt_stdio_output@@@2@@__crt_stdio_output@@AAE_N_W@Z 10005f4b f i libucrt:output.obj
 0001:00004fe3       ?type_case_integer@?$output_processor@_WV?$stream_output_adapter@_W@__crt_stdio_output@@V?$standard_base@_WV?$stream_output_adapter@_W@__crt_stdio_output@@@2@@__crt_stdio_output@@AAE_NI_N@Z 10005fe3 f i libucrt:output.obj
 0001:00004fe3       ?type_case_integer@?$output_processor@_WV?$string_output_adapter@_W@__crt_stdio_output@@V?$standard_base@_WV?$string_output_adapter@_W@__crt_stdio_output@@@2@@__crt_stdio_output@@AAE_NI_N@Z 10005fe3 f i libucrt:output.obj
 0001:0000512d       ?type_case_n@?$output_processor@_WV?$stream_output_adapter@_W@__crt_stdio_output@@V?$standard_base@_WV?$stream_output_adapter@_W@__crt_stdio_output@@@2@@__crt_stdio_output@@AAE_NXZ 1000612d f i libucrt:output.obj
 0001:0000512d       ?type_case_n@?$output_processor@_WV?$string_output_adapter@_W@__crt_stdio_output@@V?$standard_base@_WV?$string_output_adapter@_W@__crt_stdio_output@@@2@@__crt_stdio_output@@AAE_NXZ 1000612d f i libucrt:output.obj
 0001:000051a1       ?type_case_o@?$output_processor@_WV?$string_output_adapter@_W@__crt_stdio_output@@V?$standard_base@_WV?$string_output_adapter@_W@__crt_stdio_output@@@2@@__crt_stdio_output@@AAE_NXZ 100061a1 f i libucrt:output.obj
 0001:000051a1       ?type_case_o@?$output_processor@_WV?$stream_output_adapter@_W@__crt_stdio_output@@V?$standard_base@_WV?$stream_output_adapter@_W@__crt_stdio_output@@@2@@__crt_stdio_output@@AAE_NXZ 100061a1 f i libucrt:output.obj
 0001:000051c0       ?type_case_p@?$output_processor@_WV?$string_output_adapter@_W@__crt_stdio_output@@V?$standard_base@_WV?$string_output_adapter@_W@__crt_stdio_output@@@2@@__crt_stdio_output@@AAE_NXZ 100061c0 f i libucrt:output.obj
 0001:000051c0       ?type_case_p@?$output_processor@_WV?$stream_output_adapter@_W@__crt_stdio_output@@V?$standard_base@_WV?$stream_output_adapter@_W@__crt_stdio_output@@@2@@__crt_stdio_output@@AAE_NXZ 100061c0 f i libucrt:output.obj
 0001:000051d8       ?type_case_s@?$output_processor@_WV?$stream_output_adapter@_W@__crt_stdio_output@@V?$standard_base@_WV?$stream_output_adapter@_W@__crt_stdio_output@@@2@@__crt_stdio_output@@AAE_NXZ 100061d8 f i libucrt:output.obj
 0001:000051d8       ?type_case_s@?$output_processor@_WV?$string_output_adapter@_W@__crt_stdio_output@@V?$standard_base@_WV?$string_output_adapter@_W@__crt_stdio_output@@@2@@__crt_stdio_output@@AAE_NXZ 100061d8 f i libucrt:output.obj
 0001:0000524c       ?type_case_s_compute_narrow_string_length@?$output_processor@_WV?$stream_output_adapter@_W@__crt_stdio_output@@V?$standard_base@_WV?$stream_output_adapter@_W@__crt_stdio_output@@@2@@__crt_stdio_output@@ABEHH_W@Z 1000624c f i libucrt:output.obj
 0001:0000524c       ?type_case_s_compute_narrow_string_length@?$output_processor@_WV?$string_output_adapter@_W@__crt_stdio_output@@V?$standard_base@_WV?$string_output_adapter@_W@__crt_stdio_output@@@2@@__crt_stdio_output@@ABEHH_W@Z 1000624c f i libucrt:output.obj
 0001:0000528c       ?write_character@?$stream_output_adapter@_W@__crt_stdio_output@@QBEX_WQAH@Z 1000628c f i libucrt:output.obj
 0001:000052cc       ?write_character@?$string_output_adapter@_W@__crt_stdio_output@@QBE_N_WQAH@Z 100062cc f i libucrt:output.obj
 0001:00005311       ?write_stored_string_tchar@?$output_processor@_WV?$stream_output_adapter@_W@__crt_stdio_output@@V?$standard_base@_WV?$stream_output_adapter@_W@__crt_stdio_output@@@2@@__crt_stdio_output@@AAE_N_W@Z 10006311 f i libucrt:output.obj
 0001:0000539c       ?write_stored_string_tchar@?$output_processor@_WV?$string_output_adapter@_W@__crt_stdio_output@@V?$standard_base@_WV?$string_output_adapter@_W@__crt_stdio_output@@@2@@__crt_stdio_output@@AAE_N_W@Z 1000639c f i libucrt:output.obj
 0001:00005427       ?write_string@?$stream_output_adapter@_W@__crt_stdio_output@@QBEXQB_WHQAH1@Z 10006427 f i libucrt:output.obj
 0001:000054b4       ?write_string@?$string_output_adapter@_W@__crt_stdio_output@@QBEXQB_WHQAH1@Z 100064b4 f i libucrt:output.obj
 0001:0000554e       ___stdio_common_vfwprintf  1000654e f   libucrt:output.obj
 0001:000055c5       ___stdio_common_vswprintf  100065c5 f   libucrt:output.obj
 0001:000055e9       ??$is_overflow_condition@K@__crt_strtox@@YA_NIK@Z 100065e9 f i libucrt:atox.obj
 0001:0000561c       ??$parse_integer@KV?$c_string_character_source@_W@__crt_strtox@@@__crt_strtox@@YAKQAU__crt_locale_pointers@@V?$c_string_character_source@_W@0@H_N@Z 1000661c f i libucrt:atox.obj
 0001:00005d01       ?unget@?$c_string_character_source@_W@__crt_strtox@@QAEX_W@Z 10006d01 f i libucrt:atox.obj
 0001:00005d2d       ?validate@?$string_output_adapter@_W@__crt_stdio_output@@QBE_NXZ 10006d2d f i libucrt:output.obj
 0001:00005d2d       ?validate@?$stream_output_adapter@_W@__crt_stdio_output@@QBE_NXZ 10006d2d f i libucrt:output.obj
 0001:00005d2d       ?validate@?$c_string_character_source@_W@__crt_strtox@@QBE_NXZ 10006d2d f i libucrt:atox.obj
 0001:00005d48       __chvalidchk_l             10006d48 f i libucrt:atox.obj
 0001:00005d72       __ischartype_l             10006d72 f i libucrt:atox.obj
 0001:00005da5       ___acrt_call_reportfault   10006da5 f   libucrt:invalid_parameter.obj
 0001:00005ee0       ___acrt_initialize_invalid_parameter_handler 10006ee0 f   libucrt:invalid_parameter.obj
 0001:00005ef4       __invalid_parameter        10006ef4 f   libucrt:invalid_parameter.obj
 0001:00005f6f       __invalid_parameter_noinfo 10006f6f f   libucrt:invalid_parameter.obj
 0001:00005f7f       __invoke_watson            10006f7f f   libucrt:invalid_parameter.obj
 0001:00005fb2       __query_app_type           10006fb2 f   libucrt:report_runtime_error.obj
 0001:00005fb8       ___acrt_errno_from_os_error 10006fb8 f   libucrt:errno.obj
 0001:00005ffb       ___acrt_errno_map_os_error 10006ffb f   libucrt:errno.obj
 0001:0000601e       ___doserrno                1000701e f   libucrt:errno.obj
 0001:00006031       __errno                    10007031 f   libucrt:errno.obj
 0001:00006131       __itow_s                   10007131 f   libucrt:xtoa.obj
 0001:00006166       __set_error_mode           10007166 f   libucrt:set_error_mode.obj
 0001:000061a5       _wcscat_s                  100071a5 f   libucrt:wcscat_s.obj
 0001:0000621a       _wcscpy_s                  1000721a f   libucrt:wcscpy_s.obj
 0001:00006367       _wcsncat_s                 10007367 f   libucrt:wcsncat_s.obj
 0001:0000646d       ___acrt_show_wide_message_box 1000746d f   libucrt:crtmbox.obj
 0001:00006478       ___acrt_initialize_stdio   10007478 f   libucrt:_file.obj
 0001:00006540       ___acrt_iob_func           10007540 f   libucrt:_file.obj
 0001:00006550       ___acrt_uninitialize_stdio 10007550 f   libucrt:_file.obj
 0001:0000659c       __lock_file                1000759c f   libucrt:_file.obj
 0001:000065b0       __unlock_file              100075b0 f   libucrt:_file.obj
 0001:000065c4       ___acrt_stdio_flush_nolock 100075c4 f   libucrt:fflush.obj
 0001:0000662a       __fflush_nolock            1000762a f   libucrt:fflush.obj
 0001:00006671       __flushall                 10007671 f   libucrt:fflush.obj
 0001:00006752       _fflush                    10007752 f   libucrt:fflush.obj
 0001:000067ab       ??$?RV<lambda_d92cfe8357b99225085016881b624cb0>@@AAV<lambda_b721fa326cdb32351d23dfa67958c160>@@V<lambda_42d75b0848218ec137fa420c8ba9fdf9>@@@?$__crt_seh_guarded_call@H@@QAEH$$QAV<lambda_d92cfe8357b99225085016881b624cb0>@@AAV<lambda_b721fa326cdb32351d23dfa67958c160>@@$$QAV<lambda_42d75b0848218ec137fa420c8ba9fdf9>@@@Z 100077ab f i libucrt:setvbuf.obj
 0001:000067fc       ??$__acrt_lock_stream_and_call@V<lambda_b721fa326cdb32351d23dfa67958c160>@@@@YAHQAU_iobuf@@$$QAV<lambda_b721fa326cdb32351d23dfa67958c160>@@@Z 100077fc f i libucrt:setvbuf.obj
 0001:000068f1       _setvbuf                   100078f1 f   libucrt:setvbuf.obj
 0001:00006967       ??$?RV<lambda_a048d3beccc847880fc8490e18b82769>@@AAV<lambda_ec61778202f4f5fc7e7711acc23c3bca>@@V<lambda_f7496a158712204296dd6628a163878e>@@@?$__crt_seh_guarded_call@P6AXH@Z@@QAEP6AXH@Z$$QAV<lambda_a048d3beccc847880fc8490e18b82769>@@AAV<lambda_ec61778202f4f5fc7e7711acc23c3bca>@@$$QAV<lambda_f7496a158712204296dd6628a163878e>@@@Z 10007967 f i libucrt:signal.obj
 0001:000069c1       ??$__acrt_lock_and_call@V<lambda_ec61778202f4f5fc7e7711acc23c3bca>@@@@YAP6AXH@ZW4__acrt_lock_id@@$$QAV<lambda_ec61778202f4f5fc7e7711acc23c3bca>@@@Z 100079c1 f i libucrt:signal.obj
 0001:00006a53       ___acrt_get_sigabrt_handler 10007a53 f   libucrt:signal.obj
 0001:00006a6a       ___acrt_initialize_signal_handlers 10007a6a f   libucrt:signal.obj
 0001:00006aa5       ___fpecode                 10007aa5 f   libucrt:signal.obj
 0001:00006aae       _raise                     10007aae f   libucrt:signal.obj
 0001:00006e1d       __tolower_l                10007e1d f   libucrt:tolower_toupper.obj
 0001:00006e37       _tolower                   10007e37 f   libucrt:tolower_toupper.obj
 0001:00006e67       ??$?RV<lambda_3518db117f0e7cdb002338c5d3c47b6c>@@AAV<lambda_b2ea41f6bbb362cd97d94c6828d90b61>@@V<lambda_abdedf541bb04549bc734292b4a045d4>@@@?$__crt_seh_guarded_call@X@@QAEX$$QAV<lambda_3518db117f0e7cdb002338c5d3c47b6c>@@AAV<lambda_b2ea41f6bbb362cd97d94c6828d90b61>@@$$QAV<lambda_abdedf541bb04549bc734292b4a045d4>@@@Z 10007e67 f i libucrt:per_thread_data.obj
 0001:00006eb7       ??$?RV<lambda_51b6e8b1eb166f2a3faf91f424b38130>@@AAV<lambda_6250bd4b2a391816dd638c3bf72b0bcb>@@V<lambda_0b5a4a3e68152e1d9b943535f5f47bed>@@@?$__crt_seh_guarded_call@X@@QAEX$$QAV<lambda_51b6e8b1eb166f2a3faf91f424b38130>@@AAV<lambda_6250bd4b2a391816dd638c3bf72b0bcb>@@$$QAV<lambda_0b5a4a3e68152e1d9b943535f5f47bed>@@@Z 10007eb7 f i libucrt:per_thread_data.obj
 0001:00006f18       ??$?RV<lambda_5b71d36f03204c0beab531769a5b5694>@@AAV<lambda_be2b3da3f62db62e9dad5dc70221a656>@@V<lambda_8f9ce462984622f9bf76b59e2aaaf805>@@@?$__crt_seh_guarded_call@X@@QAEX$$QAV<lambda_5b71d36f03204c0beab531769a5b5694>@@AAV<lambda_be2b3da3f62db62e9dad5dc70221a656>@@$$QAV<lambda_8f9ce462984622f9bf76b59e2aaaf805>@@@Z 10007f18 f i libucrt:per_thread_data.obj
 0001:00006f63       ??$?RV<lambda_9df27f884b057bc3edfc946cb5b7cf47>@@AAV<lambda_e69574bed617af4e071282c136b37893>@@V<lambda_cc0d902bcbbeb830f749456577db4721>@@@?$__crt_seh_guarded_call@X@@QAEX$$QAV<lambda_9df27f884b057bc3edfc946cb5b7cf47>@@AAV<lambda_e69574bed617af4e071282c136b37893>@@$$QAV<lambda_cc0d902bcbbeb830f749456577db4721>@@@Z 10007f63 f i libucrt:per_thread_data.obj
 0001:00006fab       ??$__acrt_lock_and_call@V<lambda_6250bd4b2a391816dd638c3bf72b0bcb>@@@@YAXW4__acrt_lock_id@@$$QAV<lambda_6250bd4b2a391816dd638c3bf72b0bcb>@@@Z 10007fab f i libucrt:per_thread_data.obj
 0001:00006fd3       ??$__acrt_lock_and_call@V<lambda_b2ea41f6bbb362cd97d94c6828d90b61>@@@@YAXW4__acrt_lock_id@@$$QAV<lambda_b2ea41f6bbb362cd97d94c6828d90b61>@@@Z 10007fd3 f i libucrt:per_thread_data.obj
 0001:00006ffb       ??$__acrt_lock_and_call@V<lambda_be2b3da3f62db62e9dad5dc70221a656>@@@@YAXW4__acrt_lock_id@@$$QAV<lambda_be2b3da3f62db62e9dad5dc70221a656>@@@Z 10007ffb f i libucrt:per_thread_data.obj
 0001:00007023       ??$__acrt_lock_and_call@V<lambda_e69574bed617af4e071282c136b37893>@@@@YAXW4__acrt_lock_id@@$$QAV<lambda_e69574bed617af4e071282c136b37893>@@@Z 10008023 f i libucrt:per_thread_data.obj
 0001:000071d9       ___acrt_freeptd            100081d9 f   libucrt:per_thread_data.obj
 0001:00007205       ___acrt_getptd             10008205 f   libucrt:per_thread_data.obj
 0001:00007289       ___acrt_getptd_noexit      10008289 f   libucrt:per_thread_data.obj
 0001:0000730e       ___acrt_initialize_ptd     1000830e f   libucrt:per_thread_data.obj
 0001:0000733a       ___acrt_uninitialize_ptd   1000833a f   libucrt:per_thread_data.obj
 0001:00007354       ___acrt_update_locale_info 10008354 f   libucrt:locale_update.obj
 0001:00007381       ___acrt_update_multibyte_info 10008381 f   libucrt:locale_update.obj
 0001:000073ae       ___acrt_set_locale_changed 100083ae f   libucrt:wsetlocale.obj
 0001:000073b9       ___acrt_uninitialize_locale 100083b9 f   libucrt:wsetlocale.obj
 0001:0000740b       ___acrt_initialize_locks   1000840b f   libucrt:locks.obj
 0001:0000744c       ___acrt_lock               1000844c f   libucrt:locks.obj
 0001:00007463       ___acrt_uninitialize_locks 10008463 f   libucrt:locks.obj
 0001:00007494       ___acrt_unlock             10008494 f   libucrt:locks.obj
 0001:000075f6       ___acrt_FlsAlloc@4         100085f6 f   libucrt:winapi_thunks.obj
 0001:0000764c       ___acrt_FlsFree@4          1000864c f   libucrt:winapi_thunks.obj
 0001:000076a2       ___acrt_FlsGetValue@4      100086a2 f   libucrt:winapi_thunks.obj
 0001:000076f8       ___acrt_FlsSetValue@8      100086f8 f   libucrt:winapi_thunks.obj
 0001:00007751       ___acrt_InitializeCriticalSectionEx@12 10008751 f   libucrt:winapi_thunks.obj
 0001:000077b3       ___acrt_LCMapStringEx@36   100087b3 f   libucrt:winapi_thunks.obj
 0001:0000783b       ___acrt_LocaleNameToLCID@8 1000883b f   libucrt:winapi_thunks.obj
 0001:00007897       ___acrt_MessageBoxW@16     10008897 f   libucrt:winapi_thunks.obj
 0001:000078e0       ___acrt_can_show_message_box 100088e0 f   libucrt:winapi_thunks.obj
 0001:000078f9       ___acrt_get_parent_window  100088f9 f   libucrt:winapi_thunks.obj
 0001:00007978       ___acrt_initialize_winapi_thunks 10008978 f   libucrt:winapi_thunks.obj
 0001:0000799e       ___acrt_is_interactive     1000899e f   libucrt:winapi_thunks.obj
 0001:00007a44       ___acrt_is_packaged_app    10008a44 f   libucrt:winapi_thunks.obj
 0001:00007acb       ___acrt_uninitialize_winapi_thunks 10008acb f   libucrt:winapi_thunks.obj
 0001:00007ec3       ??1?$argument_list@D@?A0xb0e4b824@@QAE@XZ 10008ec3 f i libucrt:argv_wildcards.obj
 0001:00007ee8       ?append@?$argument_list@D@?A0xb0e4b824@@QAEHQAD@Z 10008ee8 f i libucrt:argv_wildcards.obj
 0001:00007f1d       ?expand_if_necessary@?$argument_list@D@?A0xb0e4b824@@AAEHXZ 10008f1d f i libucrt:argv_wildcards.obj
 0001:00007fa4       ___acrt_expand_narrow_argv_wildcards 10008fa4 f   libucrt:argv_wildcards.obj
 0001:00007faf       ??$?RV<lambda_978dc153c237d78434369da87b74ff60>@@AAV<lambda_ad1ced32f4ac17aa236e5ef05d6b3b7c>@@V<lambda_4a8533e2866a575feecb8298ce776b0d>@@@?$__crt_seh_guarded_call@X@@QAEX$$QAV<lambda_978dc153c237d78434369da87b74ff60>@@AAV<lambda_ad1ced32f4ac17aa236e5ef05d6b3b7c>@@$$QAV<lambda_4a8533e2866a575feecb8298ce776b0d>@@@Z 10008faf f i libucrt:mbctype.obj
 0001:00007ff2       ??$__acrt_lock_and_call@V<lambda_ad1ced32f4ac17aa236e5ef05d6b3b7c>@@@@YAXW4__acrt_lock_id@@$$QAV<lambda_ad1ced32f4ac17aa236e5ef05d6b3b7c>@@@Z 10008ff2 f i libucrt:mbctype.obj
 0001:00008489       ___acrt_initialize_multibyte 10009489 f   libucrt:mbctype.obj
 0001:000084a7       ___acrt_update_thread_multibyte_data 100094a7 f   libucrt:mbctype.obj
 0001:00008549       __setmbcp_nolock           10009549 f   libucrt:mbctype.obj
 0001:00008793       __ismbblead                10009793 f   libucrt:ismbbyte.obj
 0001:000087ab       ___acrt_initialize_command_line 100097ab f   libucrt:argv_data.obj
 0001:000087fb       ___dcrt_get_narrow_environment_from_os 100097fb f   libucrt:get_environment_from_os.obj
 0001:0000887e       __recalloc                 1000987e f   libucrt:recalloc.obj
 0001:00008889       __recalloc_base            10009889 f   libucrt:recalloc.obj
 0001:000088f6       ___acrt_initialize_heap    100098f6 f   libucrt:heap_handle.obj
 0001:00008907       ___acrt_uninitialize_heap  10009907 f   libucrt:heap_handle.obj
 0001:00008a7d       ___acrt_initialize_lowio   10009a7d f   libucrt:ioinit.obj
 0001:00008ad3       ___acrt_uninitialize_lowio 10009ad3 f   libucrt:ioinit.obj
 0001:00008aff       ___acrt_execute_initializers 10009aff f   libucrt:shared_initialization.obj
 0001:00008b82       ___acrt_execute_uninitializers 10009b82 f   libucrt:shared_initialization.obj
 0001:00008bcf       ?initialize@?$dual_state_global@PAU__crt_locale_data@@@__crt_state_management@@QAEXQAU__crt_locale_data@@@Z 10009bcf f i libucrt:initialization.obj
 0001:00008bcf       ?initialize@?$dual_state_global@P6AHI@Z@__crt_state_management@@QAEXQ6AHI@Z@Z 10009bcf f i libucrt:new_handler.obj
 0001:00008bcf       ?initialize@?$dual_state_global@P6AHPAU_exception@@@Z@__crt_state_management@@QAEXQ6AHPAU_exception@@@Z@Z 10009bcf f i libucrt:matherr.obj
 0001:00008bcf       ?initialize@?$dual_state_global@P6AXH@Z@__crt_state_management@@QAEXQ6AXH@Z@Z 10009bcf f i libucrt:signal.obj
 0001:00008bcf       ?initialize@?$dual_state_global@P6AXPB_W00II@Z@__crt_state_management@@QAEXQ6AXPB_W00II@Z@Z 10009bcf f i libucrt:invalid_parameter.obj
 0001:00008bcf       ?initialize@?$dual_state_global@PAPAD@__crt_state_management@@QAEXQAPAD@Z 10009bcf f i libucrt:environment_initialization.obj
 0001:00008c00       ___acrt_initialize_new_handler 10009c00 f   libucrt:new_handler.obj
 0001:00008c14       __callnewh                 10009c14 f   libucrt:new_handler.obj
 0001:00008c58       __query_new_handler        10009c58 f   libucrt:new_handler.obj
 0001:00008caa       ___acrt_has_user_matherr   10009caa f   libucrt:matherr.obj
 0001:00008cc3       ___acrt_initialize_user_matherr 10009cc3 f   libucrt:matherr.obj
 0001:00008cd7       ___acrt_invoke_user_matherr 10009cd7 f   libucrt:matherr.obj
 0001:00008d20       ___acrt_stdio_begin_temporary_buffering_nolock 10009d20 f   libucrt:_sftbuf.obj
 0001:00008dd5       ___acrt_stdio_end_temporary_buffering_nolock 10009dd5 f   libucrt:_sftbuf.obj
 0001:00008e0e       __query_new_mode           10009e0e f   libucrt:new_mode.obj
 0001:00008e14       __isdigit_l                10009e14 f i libucrt:_ctype.obj
 0001:00008e4c       _isdigit                   10009e4c f i libucrt:_ctype.obj
 0001:00008e79       ??$make_c_string_character_source@_WPAPA_W@__crt_strtox@@YA?AV?$c_string_character_source@_W@0@QB_WQAPA_W@Z 10009e79 f i libucrt:strtox.obj
 0001:00008e94       _wcstol                    10009e94 f   libucrt:strtox.obj
 0001:00008ec0       __mbtowc_l                 10009ec0 f   libucrt:mbtowc.obj
 0001:00008fba       _mbtowc                    10009fba f   libucrt:mbtowc.obj
 0001:00008fd4       __wctomb_s_l               10009fd4 f   libucrt:wctomb.obj
 0001:000090f5       _wctomb_s                  1000a0f5 f   libucrt:wctomb.obj
 0001:00009112       _wcsnlen                   1000a112 f   libucrt:strnlen.obj
 0001:000092c9       ?__acrt_fp_classify@@YA?AW4__acrt_fp_class@@ABN@Z 1000a2c9 f i libucrt:cvt.obj
 0001:00009335       ?__acrt_fp_is_negative@@YA_NABN@Z 1000a335 f i libucrt:cvt.obj
 0001:00009b94       ___acrt_fp_format          1000ab94 f   libucrt:cvt.obj
 0001:00009d10       __fputwc_nolock            1000ad10 f   libucrt:fputwc.obj
 0001:00009e36       __fileno                   1000ae36 f   libucrt:fileno.obj
 0001:00009e5c       __fputc_nolock             1000ae5c f   libucrt:fputc.obj
 0001:00009e85       __get_printf_count_output  1000ae85 f   libucrt:printf_count_output.obj
 0001:00009e9a       ___pctype_func             1000ae9a f   libucrt:ctype.obj
 0001:00009ec0       _iswctype                  1000aec0 f   libucrt:iswctype.obj
 0001:00009f1f       __isctype_l                1000af1f f   libucrt:isctype.obj
 0001:00009ff1       __fcloseall                1000aff1 f   libucrt:closeall.obj
 0001:0000a091       ___acrt_stdio_free_buffer_nolock 1000b091 f   libucrt:_freebuf.obj
 0001:0000a0cf       ??$?RV<lambda_61cee617f5178ae960314fd4d05640a0>@@AAV<lambda_6978c1fb23f02e42e1d9e99668cc68aa>@@V<lambda_9cd88cf8ad10232537feb2133f08c833>@@@?$__crt_seh_guarded_call@H@@QAEH$$QAV<lambda_61cee617f5178ae960314fd4d05640a0>@@AAV<lambda_6978c1fb23f02e42e1d9e99668cc68aa>@@$$QAV<lambda_9cd88cf8ad10232537feb2133f08c833>@@@Z 1000b0cf f i libucrt:commit.obj
 0001:0000a167       ??$__acrt_lowio_lock_fh_and_call@V<lambda_6978c1fb23f02e42e1d9e99668cc68aa>@@@@YAHH$$QAV<lambda_6978c1fb23f02e42e1d9e99668cc68aa>@@@Z 1000b167 f i libucrt:commit.obj
 0001:0000a18f       __commit                   1000b18f f   libucrt:commit.obj
 0001:0000a78e       __write                    1000b78e f   libucrt:write.obj
 0001:0000a879       __write_nolock             1000b879 f   libucrt:write.obj
 0001:0000aa85       __isleadbyte_l             1000ba85 f i libucrt:_wctype.obj
 0001:0000acdb       ___acrt_LCMapStringA       1000bcdb f   libucrt:lcmapstringa.obj
 0001:0000ad26       __freea_crt                1000bd26 f i libucrt:lcmapstringa.obj
 0001:0000ad46       ___acrt_add_locale_ref     1000bd46 f   libucrt:locale_refcounting.obj
 0001:0000adc3       ___acrt_free_locale        1000bdc3 f   libucrt:locale_refcounting.obj
 0001:0000af0d       ___acrt_locale_add_lc_time_reference 1000bf0d f   libucrt:locale_refcounting.obj
 0001:0000af36       ___acrt_locale_free_lc_time_if_unreferenced 1000bf36 f   libucrt:locale_refcounting.obj
 0001:0000af66       ___acrt_locale_release_lc_time_reference 1000bf66 f   libucrt:locale_refcounting.obj
 0001:0000af8f       ___acrt_release_locale_ref 1000bf8f f   libucrt:locale_refcounting.obj
 0001:0000b010       ___acrt_update_thread_locale_data 1000c010 f   libucrt:locale_refcounting.obj
 0001:0000b087       __updatetlocinfoEx_nolock  1000c087 f   libucrt:locale_refcounting.obj
 0001:0000b0d7       ___acrt_locale_free_monetary 1000c0d7 f   libucrt:initmon.obj
 0001:0000b1d5       ___acrt_locale_free_numeric 1000c1d5 f   libucrt:initnum.obj
 0001:0000b27a       ___acrt_locale_free_time   1000c27a f   libucrt:inittime.obj
 0001:0000b35e       ___acrt_GetStringTypeA     1000c35e f   libucrt:getstringtypea.obj
 0001:0000b537       ___acrt_DownlevelLocaleNameToLCID 1000c537 f   libucrt:lcidtoname_downlevel.obj
 0001:0000b650       _qsort                     1000c650 f   libucrt:qsort.obj
 0001:0000ba9b       _strncpy_s                 1000ca9b f   libucrt:strncpy_s.obj
 0001:0000bab0       _strpbrk                   1000cab0 f   libucrt:strpbrk.obj
 0001:0000baf0       __mbsdec                   1000caf0 f   libucrt:mbsdec.obj
 0001:0000bb07       __mbsdec_l                 1000cb07 f   libucrt:mbsdec.obj
 0001:0000bba3       __msize                    1000cba3 f   libucrt:msize.obj
 0001:0000bbd6       __realloc_base             1000cbd6 f   libucrt:realloc_base.obj
 0001:0000bc3f       ___acrt_lowio_create_handle_array 1000cc3f f   libucrt:osfinfo.obj
 0001:0000bcb9       ___acrt_lowio_destroy_handle_array 1000ccb9 f   libucrt:osfinfo.obj
 0001:0000bcee       ___acrt_lowio_ensure_fh_exists 1000ccee f   libucrt:osfinfo.obj
 0001:0000bd86       ___acrt_lowio_lock_fh      1000cd86 f   libucrt:osfinfo.obj
 0001:0000bda9       ___acrt_lowio_unlock_fh    1000cda9 f   libucrt:osfinfo.obj
 0001:0000bdcc       __free_osfhnd              1000cdcc f   libucrt:osfinfo.obj
 0001:0000be5d       __get_osfhandle            1000ce5d f   libucrt:osfinfo.obj
 0001:0000bec7       __isatty                   1000cec7 f   libucrt:isatty.obj
 0001:0000bf1d       ___acrt_fp_strflt_to_string 1000cf1d f   libucrt:_fptostr.obj
 0001:0000bfd9       ??0scoped_fp_state_reset@?A0x48fbfdd4@@QAE@XZ 1000cfd9 f i libucrt:cfout.obj
 0001:0000c010       ?divide@__crt_strtox@@YA_KAAUbig_integer@1@ABU21@@Z 1000d010 f i libucrt:cfout.obj
 0001:0000c4be       ___acrt_fltout             1000d4be f   libucrt:cfout.obj
 0001:0000dca1       ___acrt_stdio_flush_and_write_narrow_nolock 1000eca1 f   libucrt:_flsbuf.obj
 0001:0000dcac       ___acrt_stdio_flush_and_write_wide_nolock 1000ecac f   libucrt:_flsbuf.obj
 0001:0000dcb7       __fclose_nolock            1000ecb7 f   libucrt:fclose.obj
 0001:0000dd2d       _fclose                    1000ed2d f   libucrt:fclose.obj
 0001:0000df30       __lseeki64                 1000ef30 f   libucrt:lseek.obj
 0001:0000df4b       __lseeki64_nolock          1000ef4b f   libucrt:lseek.obj
 0001:0000df66       __putwch_nolock            1000ef66 f   libucrt:putwch.obj
 0001:0000dfab       ___strncnt                 1000efab f   libucrt:strncnt.obj
 0001:0000dfc7       _fegetenv                  1000efc7 f   libucrt:fegetenv.obj
 0001:0000dfe4       _fesetenv                  1000efe4 f   libucrt:fesetenv.obj
 0001:0000e02d       _feholdexcept              1000f02d f   libucrt:feholdexcept.obj
 0001:0000e080       _log10                     1000f080 f   libucrt:log10.obj
 0001:0000e0c0       __CIlog10                  1000f0c0 f   libucrt:log10.obj
 0001:0000e0fb       __CIlog10_default          1000f0fb f   libucrt:log10.obj
 0001:0000e10f       __log10_default            1000f10f     libucrt:log10.obj
 0001:0000e1d0       _ceil                      1000f1d0 f   libucrt:ceil_pentium4.obj
 0001:0000e210       __ceil_pentium4            1000f210 f   libucrt:ceil_pentium4.obj
 0001:0000e2ed       ___acrt_stdio_allocate_buffer_nolock 1000f2ed f   libucrt:_getbuf.obj
 0001:0000e34a       ??$?RV<lambda_123407a5e2ac06da108355a851863b7a>@@AAV<lambda_2fe9b910cf3cbf4a0ab98a02ba45b3ec>@@V<lambda_ae55bdf541ad94d75914d381c370e64d>@@@?$__crt_seh_guarded_call@H@@QAEH$$QAV<lambda_123407a5e2ac06da108355a851863b7a>@@AAV<lambda_2fe9b910cf3cbf4a0ab98a02ba45b3ec>@@$$QAV<lambda_ae55bdf541ad94d75914d381c370e64d>@@@Z 1000f34a f i libucrt:close.obj
 0001:0000e3cc       ??$__acrt_lowio_lock_fh_and_call@V<lambda_2fe9b910cf3cbf4a0ab98a02ba45b3ec>@@@@YAHH$$QAV<lambda_2fe9b910cf3cbf4a0ab98a02ba45b3ec>@@@Z 1000f3cc f i libucrt:close.obj
 0001:0000e3f4       __close                    1000f3f4 f   libucrt:close.obj
 0001:0000e473       __close_nolock             1000f473 f   libucrt:close.obj
 0001:0000e50f       ?__acrt_stdio_free_stream@@YAXV__crt_stdio_stream@@@Z 1000f50f f   libucrt:stream.obj
 0001:0000e54a       ___dcrt_lowio_initialize_console_output 1000f54a f   libucrt:initcon.obj
 0001:0000e569       ___dcrt_terminate_console_output 1000f569 f   libucrt:initcon.obj
 0001:0000e580       ___ascii_strnicmp          1000f580 f   libucrt:_strnicm.obj
 0001:0000e884       __getfpcontrolword         1000f884 f   libucrt:_fenvutils.obj
 0001:0000e8c7       __getfpstatusword          1000f8c7 f   libucrt:_fenvutils.obj
 0001:0000e96f       __setfpcontrolword         1000f96f f   libucrt:_fenvutils.obj
 0001:0000e9ef       __setfpstatusword          1000f9ef f   libucrt:_fenvutils.obj
 0001:0000ea6f       __clearfp                  1000fa6f f   libucrt:ieee87.obj
 0001:0000eb4d       ___acrt_initialize_sse2    1000fb4d f   libucrt:mathfcns.obj
 0001:0000eb60       __CIlog10_pentium4         1000fb60 f   libucrt:log10_pentium4.obj
 0001:0000eb78       __log10_pentium4           1000fb78     libucrt:log10_pentium4.obj
 0001:0000ee01       __fFEXP                    1000fe01     libucrt:87tran.obj
 0001:0000ee58       __rtinfpopse               1000fe58     libucrt:87tran.obj
 0001:0000ee5a       __rtinfnpopse              1000fe5a     libucrt:87tran.obj
 0001:0000ee6a       __fFLN                     1000fe6a     libucrt:87tran.obj
 0001:0000ef1f       __rtinfpop                 1000ff1f     libucrt:87tran.obj
 0001:0000ef21       __rtinfnpop                1000ff21     libucrt:87tran.obj
 0001:0000ef3e       __ffexpm1                  1000ff3e     libucrt:87tran.obj
 0001:0000eff0       __trandisp1                1000fff0 f   libucrt:87disp.obj
 0001:0000f057       __trandisp2                10010057 f   libucrt:87disp.obj
 0001:0000f0e3       __rttospopde               100100e3     libucrt:87disp.obj
 0001:0000f0e8       __rttospop                 100100e8     libucrt:87disp.obj
 0001:0000f0ea       __rtnospop                 100100ea     libucrt:87disp.obj
 0001:0000f0ec       __rttosnpop                100100ec     libucrt:87disp.obj
 0001:0000f0ed       __rtnospopde               100100ed     libucrt:87disp.obj
 0001:0000f0f4       __rtzeropop                100100f4     libucrt:87disp.obj
 0001:0000f0f6       __rtzeronpop               100100f6     libucrt:87disp.obj
 0001:0000f0fb       __rtzerospop               100100fb     libucrt:87disp.obj
 0001:0000f108       __rtonepop                 10010108     libucrt:87disp.obj
 0001:0000f10a       __rtonenpop                1001010a     libucrt:87disp.obj
 0001:0000f10f       __tosnan1                  1001010f     libucrt:87disp.obj
 0001:0000f13a       __nosnan2                  1001013a     libucrt:87disp.obj
 0001:0000f13c       __tosnan2                  1001013c     libucrt:87disp.obj
 0001:0000f164       __nan2                     10010164     libucrt:87disp.obj
 0001:0000f1a3       __rtindfpop                100101a3     libucrt:87disp.obj
 0001:0000f1a5       __rtindfnpop               100101a5     libucrt:87disp.obj
 0001:0000f1b6       __rttosnpopde              100101b6     libucrt:87disp.obj
 0001:0000f1c0       __rtatan2inf               100101c0     libucrt:87disp.obj
 0001:0000f1dd       __rtchsifneg               100101dd     libucrt:87disp.obj
 0001:0000f1f0       __twoToTOS                 100101f0 f   libucrt:common.obj
 0001:0000f205       __load_CW                  10010205 f   libucrt:common.obj
 0001:0000f21c       __convertTOStoQNaN         1001021c f   libucrt:common.obj
 0001:0000f235       __fload_withFB             10010235 f   libucrt:common.obj
 0001:0000f278       __checkTOS_withFB          10010278 f   libucrt:common.obj
 0001:0000f28e       __fast_exit                1001028e f   libucrt:common.obj
 0001:0000f29b       __math_exit                1001029b f   libucrt:common.obj
 0001:0000f2c5       __check_overflow_exit      100102c5 f   libucrt:common.obj
 0001:0000f2d9       __check_range_exit         100102d9 f   libucrt:common.obj
 0001:0000f380       __startTwoArgErrorHandling 10010380 f   libucrt:genexcep.obj
 0001:0000f397       __startOneArgErrorHandling 10010397 f   libucrt:genexcep.obj
 0001:0000f3d3       ___libm_error_support      100103d3 f   libucrt:libm_error.obj
 0001:0000f5eb       __ceil_default             100105eb f   libucrt:ceil.obj
 0001:0000f6a4       __clrfp                    100106a4 f   libucrt:fpctrl.obj
 0001:0000f6b7       __ctrlfp                   100106b7 f   libucrt:fpctrl.obj
 0001:0000f6e3       __set_statfp               100106e3 f   libucrt:fpctrl.obj
 0001:0000f73e       __statfp                   1001073e f   libucrt:fpctrl.obj
 0001:0000f750       __d_inttype                10010750 f   libucrt:powhlp.obj
 0001:0000f7ba       __powhlp                   100107ba f   libucrt:powhlp.obj
 0001:0000f8e5       __87except                 100108e5 f   libucrt:87except.obj
 0001:0000f9f0       __frnd                     100109f0 f   libucrt:frnd.obj
 0001:0000fa06       __errcode                  10010a06 f   libucrt:fpexcept.obj
 0001:0000fa3a       __except1                  10010a3a f   libucrt:fpexcept.obj
 0001:0000fb08       __handle_exc               10010b08 f   libucrt:fpexcept.obj
 0001:0000fce8       __raise_exc                10010ce8 f   libucrt:fpexcept.obj
 0001:0000fd0b       __raise_exc_ex             10010d0b f   libucrt:fpexcept.obj
 0001:0000fffc       __set_errno_from_matherr   10010ffc f   libucrt:fpexcept.obj
 0001:0001002b       __umatherr                 1001102b f   libucrt:fpexcept.obj
 0001:000100cd       __decomp                   100110cd f   libucrt:util.obj
 0001:000101a1       __set_exp                  100111a1 f   libucrt:util.obj
 0001:000101d0       __sptype                   100111d0 f   libucrt:util.obj
 0001:0001022e       __fpclass                  1001122e f   libucrt:ieeemisc.obj
 0001:000102d2       _IsProcessorFeaturePresent@4 100112d2 f   kernel32:KERNEL32.dll
 0001:000102d8       _RtlUnwind@16              100112d8 f   kernel32:KERNEL32.dll
 0001:000102de       ?DloadAcquireSectionWriteAccess@@YGXXZ 100112de f i DelayImp:delayhlp.obj
 0001:00010311       ?DloadGetSRWLockFunctionPointers@@YGEXZ 10011311 f i DelayImp:delayhlp.obj
 0001:0001038c       ?DloadLock@@YGXXZ          1001138c f i DelayImp:delayhlp.obj
 0001:000103e9       ?DloadMakePermanentImageCommit@@YGXPAXK@Z 100113e9 f i DelayImp:delayhlp.obj
 0001:0001045b       ?DloadObtainSection@@YGPAXPAK0@Z 1001145b f i DelayImp:delayhlp.obj
 0001:000104de       ?DloadProtectSection@@YGXKPAK@Z 100114de f i DelayImp:delayhlp.obj
 0001:0001054e       ?DloadReleaseSectionWriteAccess@@YGXXZ 1001154e f i DelayImp:delayhlp.obj
 0001:00010586       ?DloadUnlock@@YGXXZ        10011586 f i DelayImp:delayhlp.obj
 0001:000105d0       ___delayLoadHelper2@8      100115d0 f   DelayImp:delayhlp.obj
 0001:00010860       __FindPESection            10011860 f   LIBCMT:pesect.obj
 0001:000108b0       __IsNonwritableInCurrentImage 100118b0 f   LIBCMT:pesect.obj
 0001:00010970       __ValidateImageBase        10011970 f   LIBCMT:pesect.obj
 0001:000109b0       __aulldvrm                 100119b0 f   LIBCMT:ulldvrm.obj
 0001:00010a50       __SEH_prolog4_GS           10011a50 f   LIBCMT:_sehprolg4gs_.obj
 0001:00010a99       __SEH_epilog4_GS           10011a99 f   LIBCMT:_sehprolg4gs_.obj
 0001:00010ab0       __allmul                   10011ab0 f   LIBCMT:llmul.obj
 0001:00010af0       __alldvrm                  10011af0 f   LIBCMT:lldvrm.obj
 0001:00010bd0       __aullshr                  10011bd0 f   LIBCMT:ullshr.obj
 0001:00010bf0       __alloca_probe             10011bf0 f   LIBCMT:chkstk.obj
 0001:00010bf0       __chkstk                   10011bf0 f   LIBCMT:chkstk.obj
 0001:00010c20       __alloca_probe_16          10011c20 f   LIBCMT:alloca16.obj
 0001:00010c36       __alloca_probe_8           10011c36     LIBCMT:alloca16.obj
 0001:00010c50       __allshl                   10011c50 f   LIBCMT:llshl.obj
 0001:00010c70       __ftol2_sse                10011c70 f   LIBCMT:_ftol2_.obj
 0001:00010c79       __ftol2_pentium4           10011c79 f   LIBCMT:_ftol2_.obj
 0001:00010c8c       __ftol2_sse_excpt          10011c8c f   LIBCMT:_ftol2_.obj
 0001:00010cb0       __ftol2                    10011cb0 f   LIBCMT:_ftol2_.obj
 0001:00010d30       _memcpy                    10011d30 f   libvcruntime:memcpy.obj
 0001:000112b0       _strchr                    100122b0 f   libvcruntime:strchr.obj
 0001:0001131e       ___from_strstr_to_strchr   1001231e     libvcruntime:strchr.obj
 0001:000113e0       _memmove                   100123e0 f   libvcruntime:memmove.obj
 0001:00011960       _strrchr                   10012960 f   libvcruntime:strrchr.obj
 0002:00000000       __imp__GetModuleHandleA@4  10013000     kernel32:KERNEL32.dll
 0002:00000004       __imp__UnhandledExceptionFilter@4 10013004     kernel32:KERNEL32.dll
 0002:00000008       __imp__SetUnhandledExceptionFilter@4 10013008     kernel32:KERNEL32.dll
 0002:0000000c       __imp__GetCurrentProcess@0 1001300c     kernel32:KERNEL32.dll
 0002:00000010       __imp__TerminateProcess@8  10013010     kernel32:KERNEL32.dll
 0002:00000014       __imp__IsProcessorFeaturePresent@4 10013014     kernel32:KERNEL32.dll
 0002:00000018       __imp__QueryPerformanceCounter@4 10013018     kernel32:KERNEL32.dll
 0002:0000001c       __imp__GetCurrentProcessId@0 1001301c     kernel32:KERNEL32.dll
 0002:00000020       __imp__GetCurrentThreadId@0 10013020     kernel32:KERNEL32.dll
 0002:00000024       __imp__GetSystemTimeAsFileTime@4 10013024     kernel32:KERNEL32.dll
 0002:00000028       __imp__InitializeSListHead@4 10013028     kernel32:KERNEL32.dll
 0002:0000002c       __imp__IsDebuggerPresent@0 1001302c     kernel32:KERNEL32.dll
 0002:00000030       __imp__GetStartupInfoW@4   10013030     kernel32:KERNEL32.dll
 0002:00000034       __imp__GetModuleHandleW@4  10013034     kernel32:KERNEL32.dll
 0002:00000038       __imp__InterlockedFlushSList@4 10013038     kernel32:KERNEL32.dll
 0002:0000003c       __imp__RtlUnwind@16        1001303c     kernel32:KERNEL32.dll
 0002:00000040       __imp__GetLastError@0      10013040     kernel32:KERNEL32.dll
 0002:00000044       __imp__SetLastError@4      10013044     kernel32:KERNEL32.dll
 0002:00000048       __imp__EnterCriticalSection@4 10013048     kernel32:KERNEL32.dll
 0002:0000004c       __imp__LeaveCriticalSection@4 1001304c     kernel32:KERNEL32.dll
 0002:00000050       __imp__DeleteCriticalSection@4 10013050     kernel32:KERNEL32.dll
 0002:00000054       __imp__InitializeCriticalSectionAndSpinCount@8 10013054     kernel32:KERNEL32.dll
 0002:00000058       __imp__TlsAlloc@0          10013058     kernel32:KERNEL32.dll
 0002:0000005c       __imp__TlsGetValue@4       1001305c     kernel32:KERNEL32.dll
 0002:00000060       __imp__TlsSetValue@8       10013060     kernel32:KERNEL32.dll
 0002:00000064       __imp__TlsFree@4           10013064     kernel32:KERNEL32.dll
 0002:00000068       __imp__FreeLibrary@4       10013068     kernel32:KERNEL32.dll
 0002:0000006c       __imp__GetProcAddress@8    1001306c     kernel32:KERNEL32.dll
 0002:00000070       __imp__LoadLibraryExW@12   10013070     kernel32:KERNEL32.dll
 0002:00000074       __imp__GetStdHandle@4      10013074     kernel32:KERNEL32.dll
 0002:00000078       __imp__GetFileType@4       10013078     kernel32:KERNEL32.dll
 0002:0000007c       __imp__GetModuleFileNameA@12 1001307c     kernel32:KERNEL32.dll
 0002:00000080       __imp__GetModuleFileNameW@12 10013080     kernel32:KERNEL32.dll
 0002:00000084       __imp__GetModuleHandleExW@12 10013084     kernel32:KERNEL32.dll
 0002:00000088       __imp__WriteConsoleW@20    10013088     kernel32:KERNEL32.dll
 0002:0000008c       __imp__ExitProcess@4       1001308c     kernel32:KERNEL32.dll
 0002:00000090       __imp__MultiByteToWideChar@24 10013090     kernel32:KERNEL32.dll
 0002:00000094       __imp__WideCharToMultiByte@32 10013094     kernel32:KERNEL32.dll
 0002:00000098       __imp__HeapFree@12         10013098     kernel32:KERNEL32.dll
 0002:0000009c       __imp__HeapAlloc@12        1001309c     kernel32:KERNEL32.dll
 0002:000000a0       __imp__WriteFile@20        100130a0     kernel32:KERNEL32.dll
 0002:000000a4       __imp__OutputDebugStringW@4 100130a4     kernel32:KERNEL32.dll
 0002:000000a8       __imp__CloseHandle@4       100130a8     kernel32:KERNEL32.dll
 0002:000000ac       __imp__WaitForSingleObjectEx@12 100130ac     kernel32:KERNEL32.dll
 0002:000000b0       __imp__CreateThread@24     100130b0     kernel32:KERNEL32.dll
 0002:000000b4       __imp__GetACP@0            100130b4     kernel32:KERNEL32.dll
 0002:000000b8       __imp__LCMapStringW@24     100130b8     kernel32:KERNEL32.dll
 0002:000000bc       __imp__FindClose@4         100130bc     kernel32:KERNEL32.dll
 0002:000000c0       __imp__FindFirstFileExA@24 100130c0     kernel32:KERNEL32.dll
 0002:000000c4       __imp__FindNextFileA@8     100130c4     kernel32:KERNEL32.dll
 0002:000000c8       __imp__IsValidCodePage@4   100130c8     kernel32:KERNEL32.dll
 0002:000000cc       __imp__GetOEMCP@0          100130cc     kernel32:KERNEL32.dll
 0002:000000d0       __imp__GetCPInfo@8         100130d0     kernel32:KERNEL32.dll
 0002:000000d4       __imp__GetCommandLineA@0   100130d4     kernel32:KERNEL32.dll
 0002:000000d8       __imp__GetCommandLineW@0   100130d8     kernel32:KERNEL32.dll
 0002:000000dc       __imp__GetEnvironmentStringsW@0 100130dc     kernel32:KERNEL32.dll
 0002:000000e0       __imp__FreeEnvironmentStringsW@4 100130e0     kernel32:KERNEL32.dll
 0002:000000e4       __imp__GetProcessHeap@0    100130e4     kernel32:KERNEL32.dll
 0002:000000e8       __imp__GetStringTypeW@16   100130e8     kernel32:KERNEL32.dll
 0002:000000ec       __imp__FlushFileBuffers@4  100130ec     kernel32:KERNEL32.dll
 0002:000000f0       __imp__GetConsoleCP@0      100130f0     kernel32:KERNEL32.dll
 0002:000000f4       __imp__GetConsoleMode@8    100130f4     kernel32:KERNEL32.dll
 0002:000000f8       __imp__HeapSize@12         100130f8     kernel32:KERNEL32.dll
 0002:000000fc       __imp__HeapReAlloc@16      100130fc     kernel32:KERNEL32.dll
 0002:00000100       __imp__SetStdHandle@8      10013100     kernel32:KERNEL32.dll
 0002:00000104       __imp__SetFilePointerEx@20 10013104     kernel32:KERNEL32.dll
 0002:00000108       __imp__CreateFileW@28      10013108     kernel32:KERNEL32.dll
 0002:0000010c       __imp__DecodePointer@4     1001310c     kernel32:KERNEL32.dll
 0002:00000110       __imp__RaiseException@16   10013110     kernel32:KERNEL32.dll
 0002:00000114       __imp__GetSystemInfo@4     10013114     kernel32:KERNEL32.dll
 0002:00000118       __imp__VirtualProtect@16   10013118     kernel32:KERNEL32.dll
 0002:0000011c       __imp__VirtualQuery@12     1001311c     kernel32:KERNEL32.dll
 0002:00000120       __imp__LoadLibraryExA@12   10013120     kernel32:KERNEL32.dll
 0002:00000124       \177KERNEL32_NULL_THUNK_DATA 10013124     kernel32:KERNEL32.dll
 0002:00000128       ___guard_check_icall_fptr  10013128     LIBCMT:guard_support.obj
 0002:0000012c       ___xc_a                    1001312c     LIBCMT:initializers.obj
 0002:00000130       __register_rsa_keygen_     10013130     rsa_keygen.obj
 0002:00000134       ___xc_z                    10013134     LIBCMT:initializers.obj
 0002:00000138       ___xi_a                    10013138     LIBCMT:initializers.obj
 0002:0000013c       ___acrt_stdio_initializer  1001313c     libucrt:stdio_initializer.obj
 0002:00000140       ___acrt_multibyte_initializer 10013140     libucrt:multibyte_initializer.obj
 0002:00000144       ___acrt_tran_sse2_initializer 10013144     libucrt:sse2_initializer.obj
 0002:00000148       ___xi_z                    10013148     LIBCMT:initializers.obj
 0002:0000014c       ___xp_a                    1001314c     LIBCMT:initializers.obj
 0002:00000150       ___acrt_locale_terminator  10013150     libucrt:locale_initializer.obj
 0002:00000154       ___dcrt_console_output_terminator 10013154     libucrt:console_output_initializer.obj
 0002:00000158       ___acrt_stdio_terminator   10013158     libucrt:stdio_initializer.obj
 0002:0000015c       ___xp_z                    1001315c     LIBCMT:initializers.obj
 0002:00000160       ___xt_a                    10013160     LIBCMT:initializers.obj
 0002:00000164       ___xt_z                    10013164     LIBCMT:initializers.obj
 0002:00000170       __sz_node_exe              10013170     node:node.exe
 0002:0000017c       __pDefaultRawDllMain       1001317c     LIBCMT:dll_dllmain.obj
 0002:0000017c       __pRawDllMain              1001317c     LIBCMT:dll_dllmain.obj
 0002:00000198       ??_C@_1BC@DNHGCMLG@?$AAa?$AAd?$AAv?$AAa?$AAp?$AAi?$AA3?$AA2?$AA?$AA@ 10013198     libvcruntime:winapi_downlevel.obj
 0002:000001ac       ??_C@_1DM@KHCHBNEB@?$AAa?$AAp?$AAi?$AA?9?$AAm?$AAs?$AA?9?$AAw?$AAi?$AAn?$AA?9?$AAc?$AAo?$AAr?$AAe?$AA?9?$AAf?$AAi?$AAb?$AAe?$AAr?$AAs?$AA?9?$AAl?$AA1?$AA?9?$AA1?$AA?9?$AA1?$AA?$AA@ 100131ac     libvcruntime:winapi_downlevel.obj
 0002:000001e8       ??_C@_1DK@LPPGFMPP@?$AAa?$AAp?$AAi?$AA?9?$AAm?$AAs?$AA?9?$AAw?$AAi?$AAn?$AA?9?$AAc?$AAo?$AAr?$AAe?$AA?9?$AAs?$AAy?$AAn?$AAc?$AAh?$AA?9?$AAl?$AA1?$AA?9?$AA2?$AA?9?$AA0?$AA?$AA@ 100131e8     libvcruntime:winapi_downlevel.obj
 0002:00000224       ??_C@_1BC@GDMECMAK@?$AAk?$AAe?$AAr?$AAn?$AAe?$AAl?$AA3?$AA2?$AA?$AA@ 10013224     libvcruntime:winapi_downlevel.obj
 0002:00000240       ??_C@_08KNHFBNJ@FlsAlloc?$AA@ 10013240     libvcruntime:winapi_downlevel.obj
 0002:00000254       ??_C@_07PEJMOBNF@FlsFree?$AA@ 10013254     libvcruntime:winapi_downlevel.obj
 0002:00000264       ??_C@_0M@GDNOONDI@FlsGetValue?$AA@ 10013264     libvcruntime:winapi_downlevel.obj
 0002:00000278       ??_C@_0M@JCPCPOEF@FlsSetValue?$AA@ 10013278     libvcruntime:winapi_downlevel.obj
 0002:0000028c       ??_C@_0BM@HCFOFFN@InitializeCriticalSectionEx?$AA@ 1001328c     libvcruntime:winapi_downlevel.obj
 0002:00000438       ??_C@_08EHJDFFNH@__based?$CI?$AA@ 10013438     libvcruntime:undname.obj
 0002:00000444       ??_C@_07KOLFKCDI@__cdecl?$AA@ 10013444     libvcruntime:undname.obj
 0002:0000044c       ??_C@_08GHMPAG@__pascal?$AA@ 1001344c     libvcruntime:undname.obj
 0002:00000458       ??_C@_09IFJBGAPI@__stdcall?$AA@ 10013458     libvcruntime:undname.obj
 0002:00000464       ??_C@_0L@NPHFGOKO@__thiscall?$AA@ 10013464     libvcruntime:undname.obj
 0002:00000470       ??_C@_0L@JMKHOMEK@__fastcall?$AA@ 10013470     libvcruntime:undname.obj
 0002:0000047c       ??_C@_0N@BCKKPABJ@__vectorcall?$AA@ 1001347c     libvcruntime:undname.obj
 0002:0000048c       ??_C@_09HIJEGCPM@__clrcall?$AA@ 1001348c     libvcruntime:undname.obj
 0002:00000498       ??_C@_06GHPCKEAG@__eabi?$AA@ 10013498     libvcruntime:undname.obj
 0002:000004a0       ??_C@_07JOMMBBKO@__ptr64?$AA@ 100134a0     libvcruntime:undname.obj
 0002:000004a8       ??_C@_0L@PILCLIHE@__restrict?$AA@ 100134a8     libvcruntime:undname.obj
 0002:000004b4       ??_C@_0M@GFIIJFMG@__unaligned?$AA@ 100134b4     libvcruntime:undname.obj
 0002:000004c0       ??_C@_09DHDLOLLB@restrict?$CI?$AA@ 100134c0     libvcruntime:undname.obj
 0002:000004ca       ??_C@_00CNPNBAHC@?$AA@     100134ca     libvcruntime:undname.obj
 0002:000004cc       ??_C@_04NIHEBCM@?5new?$AA@ 100134cc     libvcruntime:undname.obj
 0002:000004d4       ??_C@_07FPCDHGMM@?5delete?$AA@ 100134d4     libvcruntime:undname.obj
 0002:000004dc       ??_C@_01NEMOKFLO@?$DN?$AA@ 100134dc     libvcruntime:undname.obj
 0002:000004e0       ??_C@_02GPIOPFAK@?$DO?$DO?$AA@ 100134e0     libvcruntime:undname.obj
 0002:000004e4       ??_C@_02FODMEDOG@?$DM?$DM?$AA@ 100134e4     libvcruntime:undname.obj
 0002:000004e8       ??_C@_01DCLJPIOD@?$CB?$AA@ 100134e8     libvcruntime:undname.obj
 0002:000004ec       ??_C@_02EGOFBIJA@?$DN?$DN?$AA@ 100134ec     libvcruntime:undname.obj
 0002:000004f0       ??_C@_02FDNJECIE@?$CB?$DN?$AA@ 100134f0     libvcruntime:undname.obj
 0002:000004f4       ??_C@_02GPECMEKF@?$FL?$FN?$AA@ 100134f4     libvcruntime:undname.obj
 0002:000004f8       ??_C@_08LHJFAFGD@operator?$AA@ 100134f8     libvcruntime:undname.obj
 0002:00000504       ??_C@_02HBOOOICD@?9?$DO?$AA@ 10013504     libvcruntime:undname.obj
 0002:00000508       ??_C@_01NBENCBCI@?$CK?$AA@ 10013508     libvcruntime:undname.obj
 0002:0000050c       ??_C@_02ECNGHCIF@?$CL?$CL?$AA@ 1001350c     libvcruntime:undname.obj
 0002:00000510       ??_C@_02BAABKJLB@?9?9?$AA@ 10013510     libvcruntime:undname.obj
 0002:00000514       ??_C@_01JOAMLHOP@?9?$AA@   10013514     libvcruntime:undname.obj
 0002:00000518       ??_C@_01MIFGBAGJ@?$CL?$AA@ 10013518     libvcruntime:undname.obj
 0002:0000051c       ??_C@_01HNPIGOCE@?$CG?$AA@ 1001351c     libvcruntime:undname.obj
 0002:00000520       ??_C@_03MNHNFDLC@?9?$DO?$CK?$AA@ 10013520     libvcruntime:undname.obj
 0002:00000524       ??_C@_01KMDKNFGN@?1?$AA@   10013524     libvcruntime:undname.obj
 0002:00000528       ??_C@_01FGNFDNOH@?$CF?$AA@ 10013528     libvcruntime:undname.obj
 0002:0000052c       ??_C@_01MNNFJEPP@?$DM?$AA@ 1001352c     libvcruntime:undname.obj
 0002:00000530       ??_C@_02EHCHHCKH@?$DM?$DN?$AA@ 10013530     libvcruntime:undname.obj
 0002:00000534       ??_C@_01PPODPGHN@?$DO?$AA@ 10013534     libvcruntime:undname.obj
 0002:00000538       ??_C@_02EEKDKGMJ@?$DO?$DN?$AA@ 10013538     libvcruntime:undname.obj
 0002:0000053c       ??_C@_01IHBHIGKO@?0?$AA@   1001353c     libvcruntime:undname.obj
 0002:00000540       ??_C@_02HCKGKOFO@?$CI?$CJ?$AA@ 10013540     libvcruntime:undname.obj
 0002:00000544       ??_C@_01PJKLJHI@?$HO?$AA@  10013544     libvcruntime:undname.obj
 0002:00000548       ??_C@_01JKBOJNNK@?$FO?$AA@ 10013548     libvcruntime:undname.obj
 0002:0000054c       ??_C@_01DNKMNLPK@?$HM?$AA@ 1001354c     libvcruntime:undname.obj
 0002:00000550       ??_C@_02PPKAJPJL@?$CG?$CG?$AA@ 10013550     libvcruntime:undname.obj
 0002:00000554       ??_C@_02NONPIBCD@?$HM?$HM?$AA@ 10013554     libvcruntime:undname.obj
 0002:00000558       ??_C@_02FPIMKNGF@?$CK?$DN?$AA@ 10013558     libvcruntime:undname.obj
 0002:0000055c       ??_C@_02FOEOMHFC@?$CL?$DN?$AA@ 1001355c     libvcruntime:undname.obj
 0002:00000560       ??_C@_02FKMDLLOA@?9?$DN?$AA@ 10013560     libvcruntime:undname.obj
 0002:00000564       ??_C@_02FJEHGPIO@?1?$DN?$AA@ 10013564     libvcruntime:undname.obj
 0002:00000568       ??_C@_02FENAOKFI@?$CF?$DN?$AA@ 10013568     libvcruntime:undname.obj
 0002:0000056c       ??_C@_03IKFCCPFF@?$DO?$DO?$DN?$AA@ 1001356c     libvcruntime:undname.obj
 0002:00000570       ??_C@_03CDNPDDLA@?$DM?$DM?$DN?$AA@ 10013570     libvcruntime:undname.obj
 0002:00000574       ??_C@_02FGJGFEAB@?$CG?$DN?$AA@ 10013574     libvcruntime:undname.obj
 0002:00000578       ??_C@_02DHLNPPGH@?$HM?$DN?$AA@ 10013578     libvcruntime:undname.obj
 0002:0000057c       ??_C@_02MHEGNOJ@?$FO?$DN?$AA@ 1001357c     libvcruntime:undname.obj
 0002:00000580       ??_C@_09IFPLHPGF@?$GAvftable?8?$AA@ 10013580     libvcruntime:undname.obj
 0002:0000058c       ??_C@_09BLBHBJP@?$GAvbtable?8?$AA@ 1001358c     libvcruntime:undname.obj
 0002:00000598       ??_C@_07FEEIOKP@?$GAvcall?8?$AA@ 10013598     libvcruntime:undname.obj
 0002:000005a0       ??_C@_08LLFFHHDJ@?$GAtypeof?8?$AA@ 100135a0     libvcruntime:undname.obj
 0002:000005ac       ??_C@_0BF@KDPPACIK@?$GAlocal?5static?5guard?8?$AA@ 100135ac     libvcruntime:undname.obj
 0002:000005c4       ??_C@_08OBABFOLI@?$GAstring?8?$AA@ 100135c4     libvcruntime:undname.obj
 0002:000005d0       ??_C@_0BD@JDLKDPAB@?$GAvbase?5destructor?8?$AA@ 100135d0     libvcruntime:undname.obj
 0002:000005e4       ??_C@_0BN@DEGPLNFK@?$GAvector?5deleting?5destructor?8?$AA@ 100135e4     libvcruntime:undname.obj
 0002:00000604       ??_C@_0BO@OBMKPJIG@?$GAdefault?5constructor?5closure?8?$AA@ 10013604     libvcruntime:undname.obj
 0002:00000624       ??_C@_0BN@IMDCHIKM@?$GAscalar?5deleting?5destructor?8?$AA@ 10013624     libvcruntime:undname.obj
 0002:00000644       ??_C@_0BO@PFGOCPJJ@?$GAvector?5constructor?5iterator?8?$AA@ 10013644     libvcruntime:undname.obj
 0002:00000664       ??_C@_0BN@LFPFMEDL@?$GAvector?5destructor?5iterator?8?$AA@ 10013664     libvcruntime:undname.obj
 0002:00000684       ??_C@_0CE@IKBNEHA@?$GAvector?5vbase?5constructor?5iterat@ 10013684     libvcruntime:undname.obj
 0002:000006a8       ??_C@_0BL@NILFHHPC@?$GAvirtual?5displacement?5map?8?$AA@ 100136a8     libvcruntime:undname.obj
 0002:000006c4       ??_C@_0CB@JONCMFFK@?$GAeh?5vector?5constructor?5iterator?8@ 100136c4     libvcruntime:undname.obj
 0002:000006e8       ??_C@_0CA@GCEOPDGL@?$GAeh?5vector?5destructor?5iterator?8?$AA@ 100136e8     libvcruntime:undname.obj
 0002:00000708       ??_C@_0CH@OOJPLCPH@?$GAeh?5vector?5vbase?5constructor?5ite@ 10013708     libvcruntime:undname.obj
 0002:00000730       ??_C@_0BL@LLKPOHJI@?$GAcopy?5constructor?5closure?8?$AA@ 10013730     libvcruntime:undname.obj
 0002:0000074c       ??_C@_0BA@KBCDOMBN@?$GAudt?5returning?8?$AA@ 1001374c     libvcruntime:undname.obj
 0002:0000075c       ??_C@_03KLGMFNMG@?$GAEH?$AA@ 1001375c     libvcruntime:undname.obj
 0002:00000760       ??_C@_05KHLCHHI@?$GARTTI?$AA@ 10013760     libvcruntime:undname.obj
 0002:00000768       ??_C@_0BA@KKLDJDLB@?$GAlocal?5vftable?8?$AA@ 10013768     libvcruntime:undname.obj
 0002:00000778       ??_C@_0CE@IIHCMGGL@?$GAlocal?5vftable?5constructor?5closu@ 10013778     libvcruntime:undname.obj
 0002:0000079c       ??_C@_06FHBGPFGH@?5new?$FL?$FN?$AA@ 1001379c     libvcruntime:undname.obj
 0002:000007a4       ??_C@_09LBNFPBCA@?5delete?$FL?$FN?$AA@ 100137a4     libvcruntime:undname.obj
 0002:000007b0       ??_C@_0P@HJKNJFNN@?$GAomni?5callsig?8?$AA@ 100137b0     libvcruntime:undname.obj
 0002:000007c0       ??_C@_0BL@CNOONJFP@?$GAplacement?5delete?5closure?8?$AA@ 100137c0     libvcruntime:undname.obj
 0002:000007dc       ??_C@_0BN@CKNJLHMB@?$GAplacement?5delete?$FL?$FN?5closure?8?$AA@ 100137dc     libvcruntime:undname.obj
 0002:000007fc       ??_C@_0CG@CFDHKGGD@?$GAmanaged?5vector?5constructor?5iter@ 100137fc     libvcruntime:undname.obj
 0002:00000824       ??_C@_0CF@IMGKMJNO@?$GAmanaged?5vector?5destructor?5itera@ 10013824     libvcruntime:undname.obj
 0002:0000084c       ??_C@_0CG@HLDDJMAG@?$GAeh?5vector?5copy?5constructor?5iter@ 1001384c     libvcruntime:undname.obj
 0002:00000874       ??_C@_0CM@FCBBDIGB@?$GAeh?5vector?5vbase?5copy?5constructo@ 10013874     libvcruntime:undname.obj
 0002:000008a0       ??_C@_0BL@CLIPGLGB@?$GAdynamic?5initializer?5for?5?8?$AA@ 100138a0     libvcruntime:undname.obj
 0002:000008bc       ??_C@_0CB@PDBIFEP@?$GAdynamic?5atexit?5destructor?5for?5?8@ 100138bc     libvcruntime:undname.obj
 0002:000008e0       ??_C@_0CD@CGAJBKEJ@?$GAvector?5copy?5constructor?5iterato@ 100138e0     libvcruntime:undname.obj
 0002:00000904       ??_C@_0CJ@GJELGAMM@?$GAvector?5vbase?5copy?5constructor?5i@ 10013904     libvcruntime:undname.obj
 0002:00000930       ??_C@_0CL@FGIJHLCE@?$GAmanaged?5vector?5copy?5constructor@ 10013930     libvcruntime:undname.obj
 0002:0000095c       ??_C@_0BM@PMGGMLDN@?$GAlocal?5static?5thread?5guard?8?$AA@ 1001395c     libvcruntime:undname.obj
 0002:00000978       ??_C@_0N@BDNMDMOL@operator?5?$CC?$CC?5?$AA@ 10013978     libvcruntime:undname.obj
 0002:00000988       ??_C@_0BC@DAFEJGAK@?5Type?5Descriptor?8?$AA@ 10013988     libvcruntime:undname.obj
 0002:0000099c       ??_C@_0BM@LDKODKLH@?5Base?5Class?5Descriptor?5at?5?$CI?$AA@ 1001399c     libvcruntime:undname.obj
 0002:000009b8       ??_C@_0BD@LGICGFMM@?5Base?5Class?5Array?8?$AA@ 100139b8     libvcruntime:undname.obj
 0002:000009cc       ??_C@_0BN@MECKDCOJ@?5Class?5Hierarchy?5Descriptor?8?$AA@ 100139cc     libvcruntime:undname.obj
 0002:000009ec       ??_C@_0BK@CFCOFLF@?5Complete?5Object?5Locator?8?$AA@ 100139ec     libvcruntime:undname.obj
 0002:00000a08       ??_C@_1EK@MBDPDCGA@?$AAM?$AAi?$AAc?$AAr?$AAo?$AAs?$AAo?$AAf?$AAt?$AA?5?$AAV?$AAi?$AAs?$AAu?$AAa?$AAl?$AA?5?$AAC?$AA?$CL?$AA?$CL?$AA?5?$AAR?$AAu?$AAn?$AAt?$AAi?$AAm?$AAe?$AA?5?$AAL?$AAi?$AAb@ 10013a08     libucrt:assert.obj
 0002:00000a58       ??_C@_1FE@LHBLIKM@?$AAA?$AAs?$AAs?$AAe?$AAr?$AAt?$AAi?$AAo?$AAn?$AA?5?$AAf?$AAa?$AAi?$AAl?$AAe?$AAd?$AA?3?$AA?5?$AA?$CF?$AAT?$AAs?$AA?0?$AA?5?$AAf?$AAi?$AAl?$AAe?$AA?5?$AA?$CF?$AAT?$AAs?$AA?0@ 10013a58     libucrt:assert.obj
 0002:00000aac       ??_C@_1CE@OJBNHDMO@?$AAA?$AAs?$AAs?$AAe?$AAr?$AAt?$AAi?$AAo?$AAn?$AA?5?$AAf?$AAa?$AAi?$AAl?$AAe?$AAd?$AA?$CB?$AA?$AA@ 10013aac     libucrt:assert.obj
 0002:00000ad0       ??_C@_1BE@PHKBBGE@?$AAP?$AAr?$AAo?$AAg?$AAr?$AAa?$AAm?$AA?3?$AA?5?$AA?$AA@ 10013ad0     libucrt:assert.obj
 0002:00000ae4       ??_C@_1O@HEMHKNDC@?$AAF?$AAi?$AAl?$AAe?$AA?3?$AA?5?$AA?$AA@ 10013ae4     libucrt:assert.obj
 0002:00000af4       ??_C@_1O@KCAFKHJE@?$AAL?$AAi?$AAn?$AAe?$AA?3?$AA?5?$AA?$AA@ 10013af4     libucrt:assert.obj
 0002:00000b04       ??_C@_1BK@PEDCIPMA@?$AAE?$AAx?$AAp?$AAr?$AAe?$AAs?$AAs?$AAi?$AAo?$AAn?$AA?3?$AA?5?$AA?$AA@ 10013b04     libucrt:assert.obj
 0002:00000b20       ??_C@_1OA@EGMLFBHJ@?$AAF?$AAo?$AAr?$AA?5?$AAi?$AAn?$AAf?$AAo?$AAr?$AAm?$AAa?$AAt?$AAi?$AAo?$AAn?$AA?5?$AAo?$AAn?$AA?5?$AAh?$AAo?$AAw?$AA?5?$AAy?$AAo?$AAu?$AAr?$AA?5?$AAp?$AAr?$AAo?$AAg@ 10013b20     libucrt:assert.obj
 0002:00000c00       ??_C@_1HK@POCJMFGK@?$AA?$CI?$AAP?$AAr?$AAe?$AAs?$AAs?$AA?5?$AAR?$AAe?$AAt?$AAr?$AAy?$AA?5?$AAt?$AAo?$AA?5?$AAd?$AAe?$AAb?$AAu?$AAg?$AA?5?$AAt?$AAh?$AAe?$AA?5?$AAa?$AAp?$AAp?$AAl?$AAi?$AAc@ 10013c00     libucrt:assert.obj
 0002:00000c7c       ??_C@_17LGKOMLJ@?$AA?4?$AA?4?$AA?4?$AA?$AA@ 10013c7c     libucrt:assert.obj
 0002:00000c84       ??_C@_13LBAGMAIH@?$AA?6?$AA?$AA@ 10013c84     libucrt:assert.obj
 0002:00000c88       ??_C@_15IABLJNFO@?$AA?6?$AA?6?$AA?$AA@ 10013c88     libucrt:assert.obj
 0002:00000c90       ??_C@_1CO@EAEJAADC@?$AA?$DM?$AAp?$AAr?$AAo?$AAg?$AAr?$AAa?$AAm?$AA?5?$AAn?$AAa?$AAm?$AAe?$AA?5?$AAu?$AAn?$AAk?$AAn?$AAo?$AAw?$AAn?$AA?$DO?$AA?$AA@ 10013c90     libucrt:assert.obj
 0002:00000cc0       ___acrt_exception_action_table 10013cc0     libucrt:exception_filter.obj
 0002:00000d50       ___acrt_signal_action_table_count 10013d50     libucrt:exception_filter.obj
 0002:00000d54       ___acrt_signal_action_first_fpe_index 10013d54     libucrt:exception_filter.obj
 0002:00000d58       ___acrt_signal_action_fpe_count 10013d58     libucrt:exception_filter.obj
 0002:00000d5c       ??_C@_1BI@BGOHAHKC@?$AAm?$AAs?$AAc?$AAo?$AAr?$AAe?$AAe?$AA?4?$AAd?$AAl?$AAl?$AA?$AA@ 10013d5c     libucrt:exit.obj
 0002:00000d74       ??_C@_0P@MIGLKIOC@CorExitProcess?$AA@ 10013d74     libucrt:exit.obj
 0002:00000e00       _standard_lookup_table     10013e00     libucrt:output.obj
 0002:00000e5c       ??_C@_06OJHGLDPL@?$CInull?$CJ?$AA@ 10013e5c     libucrt:output.obj
 0002:00000e64       ??_C@_1O@CEDCILHN@?$AA?$CI?$AAn?$AAu?$AAl?$AAl?$AA?$CJ?$AA?$AA@ 10013e64     libucrt:output.obj
 0002:00000fe0       ??_C@_03KOEHGMDN@Sun?$AA@  10013fe0     libucrt:nlsdata.obj
 0002:00000fe4       ??_C@_03PDAGKDH@Mon?$AA@   10013fe4     libucrt:nlsdata.obj
 0002:00000fe8       ??_C@_03NAGEINEP@Tue?$AA@  10013fe8     libucrt:nlsdata.obj
 0002:00000fec       ??_C@_03MHOMLAJA@Wed?$AA@  10013fec     libucrt:nlsdata.obj
 0002:00000ff0       ??_C@_03IOFIKPDN@Thu?$AA@  10013ff0     libucrt:nlsdata.obj
 0002:00000ff4       ??_C@_03IDIOELNC@Fri?$AA@  10013ff4     libucrt:nlsdata.obj
 0002:00000ff8       ??_C@_03FEFJNEK@Sat?$AA@   10013ff8     libucrt:nlsdata.obj
 0002:00000ffc       ??_C@_06OOPIFAJ@Sunday?$AA@ 10013ffc     libucrt:nlsdata.obj
 0002:00001004       ??_C@_06JLEDEDGH@Monday?$AA@ 10014004     libucrt:nlsdata.obj
 0002:0000100c       ??_C@_07BAAGCFCM@Tuesday?$AA@ 1001400c     libucrt:nlsdata.obj
 0002:00001014       ??_C@_09DLIGFAKA@Wednesday?$AA@ 10014014     libucrt:nlsdata.obj
 0002:00001020       ??_C@_08HACCIKIA@Thursday?$AA@ 10014020     libucrt:nlsdata.obj
 0002:0000102c       ??_C@_06JECMNKMI@Friday?$AA@ 1001402c     libucrt:nlsdata.obj
 0002:00001034       ??_C@_08INBOOONO@Saturday?$AA@ 10014034     libucrt:nlsdata.obj
 0002:00001040       ??_C@_03JIHJHPIE@Jan?$AA@  10014040     libucrt:nlsdata.obj
 0002:00001044       ??_C@_03HJBDCHOM@Feb?$AA@  10014044     libucrt:nlsdata.obj
 0002:00001048       ??_C@_03ODNJBKGA@Mar?$AA@  10014048     libucrt:nlsdata.obj
 0002:0000104c       ??_C@_03LEOLGMJP@Apr?$AA@  1001404c     libucrt:nlsdata.obj
 0002:00001050       ??_C@_03CNMDKL@May?$AA@    10014050     libucrt:nlsdata.obj
 0002:00001054       ??_C@_03IDFGHECI@Jun?$AA@  10014054     libucrt:nlsdata.obj
 0002:00001058       ??_C@_03LBGABGKK@Jul?$AA@  10014058     libucrt:nlsdata.obj
 0002:0000105c       ??_C@_03IFJFEIGA@Aug?$AA@  1001405c     libucrt:nlsdata.obj
 0002:00001060       ??_C@_03GGCAPAJC@Sep?$AA@  10014060     libucrt:nlsdata.obj
 0002:00001064       ??_C@_03BMAOKBAD@Oct?$AA@  10014064     libucrt:nlsdata.obj
 0002:00001068       ??_C@_03JPJOFNIA@Nov?$AA@  10014068     libucrt:nlsdata.obj
 0002:0000106c       ??_C@_03MKABNOCG@Dec?$AA@  1001406c     libucrt:nlsdata.obj
 0002:00001070       ??_C@_07CGJPFGJA@January?$AA@ 10014070     libucrt:nlsdata.obj
 0002:00001078       ??_C@_08GNJGEPFN@February?$AA@ 10014078     libucrt:nlsdata.obj
 0002:00001084       ??_C@_05HPCKOFNC@March?$AA@ 10014084     libucrt:nlsdata.obj
 0002:0000108c       ??_C@_05DMJDNLEJ@April?$AA@ 1001408c     libucrt:nlsdata.obj
 0002:00001094       ??_C@_04CNLMGBGM@June?$AA@ 10014094     libucrt:nlsdata.obj
 0002:0000109c       ??_C@_04MIEPOIFP@July?$AA@ 1001409c     libucrt:nlsdata.obj
 0002:000010a4       ??_C@_06LBBHFDDG@August?$AA@ 100140a4     libucrt:nlsdata.obj
 0002:000010ac       ??_C@_09BHHEALKD@September?$AA@ 100140ac     libucrt:nlsdata.obj
 0002:000010b8       ??_C@_07JJNFCEND@October?$AA@ 100140b8     libucrt:nlsdata.obj
 0002:000010c0       ??_C@_08HCHEGEOA@November?$AA@ 100140c0     libucrt:nlsdata.obj
 0002:000010cc       ??_C@_08EDHMEBNP@December?$AA@ 100140cc     libucrt:nlsdata.obj
 0002:000010d8       ??_C@_02DEDBPAFC@AM?$AA@   100140d8     libucrt:nlsdata.obj
 0002:000010dc       ??_C@_02CJNFDJBF@PM?$AA@   100140dc     libucrt:nlsdata.obj
 0002:000010e0       ??_C@_08BPBNCDIB@MM?1dd?1yy?$AA@ 100140e0     libucrt:nlsdata.obj
 0002:000010ec       ??_C@_0BE@CKGJFCPC@dddd?0?5MMMM?5dd?0?5yyyy?$AA@ 100140ec     libucrt:nlsdata.obj
 0002:00001100       ??_C@_08JCCMCCIL@HH?3mm?3ss?$AA@ 10014100     libucrt:nlsdata.obj
 0002:0000110c       ??_C@_17MBGCMIPB@?$AAS?$AAu?$AAn?$AA?$AA@ 1001410c     libucrt:nlsdata.obj
 0002:00001114       ??_C@_17KBOMKBF@?$AAM?$AAo?$AAn?$AA?$AA@ 10014114     libucrt:nlsdata.obj
 0002:0000111c       ??_C@_17BMKGEGOJ@?$AAT?$AAu?$AAe?$AA?$AA@ 1001411c     libucrt:nlsdata.obj
 0002:00001124       ??_C@_17CJEDCEPE@?$AAW?$AAe?$AAd?$AA?$AA@ 10014124     libucrt:nlsdata.obj
 0002:0000112c       ??_C@_17PDPHAADD@?$AAT?$AAh?$AAu?$AA?$AA@ 1001412c     libucrt:nlsdata.obj
 0002:00001134       ??_C@_17HFOLPPLP@?$AAF?$AAr?$AAi?$AA?$AA@ 10014134     libucrt:nlsdata.obj
 0002:0000113c       ??_C@_17GGIBDPIH@?$AAS?$AAa?$AAt?$AA?$AA@ 1001413c     libucrt:nlsdata.obj
 0002:00001144       ??_C@_1O@IHNHDHPB@?$AAS?$AAu?$AAn?$AAd?$AAa?$AAy?$AA?$AA@ 10014144     libucrt:nlsdata.obj
 0002:00001154       ??_C@_1O@MMNBFLIA@?$AAM?$AAo?$AAn?$AAd?$AAa?$AAy?$AA?$AA@ 10014154     libucrt:nlsdata.obj
 0002:00001164       ??_C@_1BA@ENFBFFEK@?$AAT?$AAu?$AAe?$AAs?$AAd?$AAa?$AAy?$AA?$AA@ 10014164     libucrt:nlsdata.obj
 0002:00001174       ??_C@_1BE@EBOGMDOH@?$AAW?$AAe?$AAd?$AAn?$AAe?$AAs?$AAd?$AAa?$AAy?$AA?$AA@ 10014174     libucrt:nlsdata.obj
 0002:00001188       ??_C@_1BC@HHMNLIHE@?$AAT?$AAh?$AAu?$AAr?$AAs?$AAd?$AAa?$AAy?$AA?$AA@ 10014188     libucrt:nlsdata.obj
 0002:0000119c       ??_C@_1O@PDICJHAG@?$AAF?$AAr?$AAi?$AAd?$AAa?$AAy?$AA?$AA@ 1001419c     libucrt:nlsdata.obj
 0002:000011ac       ??_C@_1BC@ENMNNPAJ@?$AAS?$AAa?$AAt?$AAu?$AAr?$AAd?$AAa?$AAy?$AA?$AA@ 100141ac     libucrt:nlsdata.obj
 0002:000011c0       ??_C@_17DKNBKCHM@?$AAJ?$AAa?$AAn?$AA?$AA@ 100141c0     libucrt:nlsdata.obj
 0002:000011c8       ??_C@_17LMDJEKJN@?$AAF?$AAe?$AAb?$AA?$AA@ 100141c8     libucrt:nlsdata.obj
 0002:000011d0       ??_C@_17CKNLEDEC@?$AAM?$AAa?$AAr?$AA?$AA@ 100141d0     libucrt:nlsdata.obj
 0002:000011d8       ??_C@_17LFPOIHDD@?$AAA?$AAp?$AAr?$AA?$AA@ 100141d8     libucrt:nlsdata.obj
 0002:000011e0       ??_C@_17PNNKMEED@?$AAM?$AAa?$AAy?$AA?$AA@ 100141e0     libucrt:nlsdata.obj
 0002:000011e8       ??_C@_17KCJGOCPB@?$AAJ?$AAu?$AAn?$AA?$AA@ 100141e8     libucrt:nlsdata.obj
 0002:000011f0       ??_C@_17IJPCKHK@?$AAJ?$AAu?$AAl?$AA?$AA@ 100141f0     libucrt:nlsdata.obj
 0002:000011f8       ??_C@_17ICPELBCN@?$AAA?$AAu?$AAg?$AA?$AA@ 100141f8     libucrt:nlsdata.obj
 0002:00001200       ??_C@_17HCHCOKMG@?$AAS?$AAe?$AAp?$AA?$AA@ 10014200     libucrt:nlsdata.obj
 0002:00001208       ??_C@_17FNLKOI@?$AAO?$AAc?$AAt?$AA?$AA@ 10014208     libucrt:nlsdata.obj
 0002:00001210       ??_C@_17BBDMLCIG@?$AAN?$AAo?$AAv?$AA?$AA@ 10014210     libucrt:nlsdata.obj
 0002:00001218       ??_C@_17EGKACKIF@?$AAD?$AAe?$AAc?$AA?$AA@ 10014218     libucrt:nlsdata.obj
 0002:00001220       ??_C@_1BA@EFMEIEBA@?$AAJ?$AAa?$AAn?$AAu?$AAa?$AAr?$AAy?$AA?$AA@ 10014220     libucrt:nlsdata.obj
 0002:00001230       ??_C@_1BC@JGDDFFAM@?$AAF?$AAe?$AAb?$AAr?$AAu?$AAa?$AAr?$AAy?$AA?$AA@ 10014230     libucrt:nlsdata.obj
 0002:00001244       ??_C@_1M@IKEENEDF@?$AAM?$AAa?$AAr?$AAc?$AAh?$AA?$AA@ 10014244     libucrt:nlsdata.obj
 0002:00001250       ??_C@_1M@GJNLMHFD@?$AAA?$AAp?$AAr?$AAi?$AAl?$AA?$AA@ 10014250     libucrt:nlsdata.obj
 0002:0000125c       ??_C@_19EPFLPGAP@?$AAJ?$AAu?$AAn?$AAe?$AA?$AA@ 1001425c     libucrt:nlsdata.obj
 0002:00001268       ??_C@_19BIFMLPCD@?$AAJ?$AAu?$AAl?$AAy?$AA?$AA@ 10014268     libucrt:nlsdata.obj
 0002:00001274       ??_C@_1O@PAHLKOAC@?$AAA?$AAu?$AAg?$AAu?$AAs?$AAt?$AA?$AA@ 10014274     libucrt:nlsdata.obj
 0002:00001284       ??_C@_1BE@DKAAMBJL@?$AAS?$AAe?$AAp?$AAt?$AAe?$AAm?$AAb?$AAe?$AAr?$AA?$AA@ 10014284     libucrt:nlsdata.obj
 0002:00001298       ??_C@_1BA@EPANDLNG@?$AAO?$AAc?$AAt?$AAo?$AAb?$AAe?$AAr?$AA?$AA@ 10014298     libucrt:nlsdata.obj
 0002:000012a8       ??_C@_1BC@BGLIFPF@?$AAN?$AAo?$AAv?$AAe?$AAm?$AAb?$AAe?$AAr?$AA?$AA@ 100142a8     libucrt:nlsdata.obj
 0002:000012bc       ??_C@_1BC@FEMKIFH@?$AAD?$AAe?$AAc?$AAe?$AAm?$AAb?$AAe?$AAr?$AA?$AA@ 100142bc     libucrt:nlsdata.obj
 0002:000012d0       ??_C@_15ODEHAHHF@?$AAA?$AAM?$AA?$AA@ 100142d0     libucrt:nlsdata.obj
 0002:000012d8       ??_C@_15CLMNNGEL@?$AAP?$AAM?$AA?$AA@ 100142d8     libucrt:nlsdata.obj
 0002:000012e0       ??_C@_1BC@IEBCMHCM@?$AAM?$AAM?$AA?1?$AAd?$AAd?$AA?1?$AAy?$AAy?$AA?$AA@ 100142e0     libucrt:nlsdata.obj
 0002:000012f4       ??_C@_1CI@KNAKOEBC@?$AAd?$AAd?$AAd?$AAd?$AA?0?$AA?5?$AAM?$AAM?$AAM?$AAM?$AA?5?$AAd?$AAd?$AA?0?$AA?5?$AAy?$AAy?$AAy?$AAy?$AA?$AA@ 100142f4     libucrt:nlsdata.obj
 0002:0000131c       ??_C@_1BC@GDGBMEMK@?$AAH?$AAH?$AA?3?$AAm?$AAm?$AA?3?$AAs?$AAs?$AA?$AA@ 1001431c     libucrt:nlsdata.obj
 0002:00001330       ??_C@_1M@BMHNFIME@?$AAe?$AAn?$AA?9?$AAU?$AAS?$AA?$AA@ 10014330     libucrt:nlsdata.obj
 0002:00001340       ___lc_time_c               10014340     libucrt:nlsdata.obj
 0002:000014f8       ??_C@_1EG@CNNIPFIM@?$AAa?$AAp?$AAi?$AA?9?$AAm?$AAs?$AA?9?$AAw?$AAi?$AAn?$AA?9?$AAa?$AAp?$AAp?$AAm?$AAo?$AAd?$AAe?$AAl?$AA?9?$AAr?$AAu?$AAn?$AAt?$AAi?$AAm?$AAe?$AA?9?$AAl?$AA1?$AA?9?$AA1@ 100144f8     libucrt:winapi_thunks.obj
 0002:00001540       ??_C@_1EA@JGEFHKEI@?$AAa?$AAp?$AAi?$AA?9?$AAm?$AAs?$AA?9?$AAw?$AAi?$AAn?$AA?9?$AAc?$AAo?$AAr?$AAe?$AA?9?$AAd?$AAa?$AAt?$AAe?$AAt?$AAi?$AAm?$AAe?$AA?9?$AAl?$AA1?$AA?9?$AA1?$AA?9?$AA1?$AA?$AA@ 10014540     libucrt:winapi_thunks.obj
 0002:00001580       ??_C@_1DI@GCIAAENM@?$AAa?$AAp?$AAi?$AA?9?$AAm?$AAs?$AA?9?$AAw?$AAi?$AAn?$AA?9?$AAc?$AAo?$AAr?$AAe?$AA?9?$AAf?$AAi?$AAl?$AAe?$AA?9?$AAl?$AA2?$AA?9?$AA1?$AA?9?$AA1?$AA?$AA@ 10014580     libucrt:winapi_thunks.obj
 0002:000015b8       ??_C@_1EI@MPIAOHOC@?$AAa?$AAp?$AAi?$AA?9?$AAm?$AAs?$AA?9?$AAw?$AAi?$AAn?$AA?9?$AAc?$AAo?$AAr?$AAe?$AA?9?$AAl?$AAo?$AAc?$AAa?$AAl?$AAi?$AAz?$AAa?$AAt?$AAi?$AAo?$AAn?$AA?9?$AAl?$AA1?$AA?9@ 100145b8     libucrt:winapi_thunks.obj
 0002:00001600       ??_C@_1FK@FPHCKFIE@?$AAa?$AAp?$AAi?$AA?9?$AAm?$AAs?$AA?9?$AAw?$AAi?$AAn?$AA?9?$AAc?$AAo?$AAr?$AAe?$AA?9?$AAl?$AAo?$AAc?$AAa?$AAl?$AAi?$AAz?$AAa?$AAt?$AAi?$AAo?$AAn?$AA?9?$AAo?$AAb?$AAs@ 10014600     libucrt:winapi_thunks.obj
 0002:00001660       ??_C@_1EM@DILCGIIO@?$AAa?$AAp?$AAi?$AA?9?$AAm?$AAs?$AA?9?$AAw?$AAi?$AAn?$AA?9?$AAc?$AAo?$AAr?$AAe?$AA?9?$AAp?$AAr?$AAo?$AAc?$AAe?$AAs?$AAs?$AAt?$AAh?$AAr?$AAe?$AAa?$AAd?$AAs?$AA?9?$AAl@ 10014660     libucrt:winapi_thunks.obj
 0002:000016ac       ??_C@_1DM@LNCGDDPN@?$AAa?$AAp?$AAi?$AA?9?$AAm?$AAs?$AA?9?$AAw?$AAi?$AAn?$AA?9?$AAc?$AAo?$AAr?$AAe?$AA?9?$AAs?$AAt?$AAr?$AAi?$AAn?$AAg?$AA?9?$AAl?$AA1?$AA?9?$AA1?$AA?9?$AA0?$AA?$AA@ 100146ac     libucrt:winapi_thunks.obj
 0002:000016e8       ??_C@_1DO@FPAPJEMD@?$AAa?$AAp?$AAi?$AA?9?$AAm?$AAs?$AA?9?$AAw?$AAi?$AAn?$AA?9?$AAc?$AAo?$AAr?$AAe?$AA?9?$AAs?$AAy?$AAs?$AAi?$AAn?$AAf?$AAo?$AA?9?$AAl?$AA1?$AA?9?$AA2?$AA?9?$AA1?$AA?$AA@ 100146e8     libucrt:winapi_thunks.obj
 0002:00001728       ??_C@_1DK@NDHNAHIO@?$AAa?$AAp?$AAi?$AA?9?$AAm?$AAs?$AA?9?$AAw?$AAi?$AAn?$AA?9?$AAc?$AAo?$AAr?$AAe?$AA?9?$AAw?$AAi?$AAn?$AAr?$AAt?$AA?9?$AAl?$AA1?$AA?9?$AA1?$AA?9?$AA0?$AA?$AA@ 10014728     libucrt:winapi_thunks.obj
 0002:00001764       ??_C@_1DM@KGHDGBCM@?$AAa?$AAp?$AAi?$AA?9?$AAm?$AAs?$AA?9?$AAw?$AAi?$AAn?$AA?9?$AAc?$AAo?$AAr?$AAe?$AA?9?$AAx?$AAs?$AAt?$AAa?$AAt?$AAe?$AA?9?$AAl?$AA2?$AA?9?$AA1?$AA?9?$AA0?$AA?$AA@ 10014764     libucrt:winapi_thunks.obj
 0002:000017a0       ??_C@_1EO@IJIOEFOH@?$AAa?$AAp?$AAi?$AA?9?$AAm?$AAs?$AA?9?$AAw?$AAi?$AAn?$AA?9?$AAr?$AAt?$AAc?$AAo?$AAr?$AAe?$AA?9?$AAn?$AAt?$AAu?$AAs?$AAe?$AAr?$AA?9?$AAw?$AAi?$AAn?$AAd?$AAo?$AAw?$AA?9@ 100147a0     libucrt:winapi_thunks.obj
 0002:000017f0       ??_C@_1FG@HHGEKANL@?$AAa?$AAp?$AAi?$AA?9?$AAm?$AAs?$AA?9?$AAw?$AAi?$AAn?$AA?9?$AAs?$AAe?$AAc?$AAu?$AAr?$AAi?$AAt?$AAy?$AA?9?$AAs?$AAy?$AAs?$AAt?$AAe?$AAm?$AAf?$AAu?$AAn?$AAc?$AAt?$AAi@ 100147f0     libucrt:winapi_thunks.obj
 0002:00001848       ??_C@_1FG@NCKKOLKO@?$AAe?$AAx?$AAt?$AA?9?$AAm?$AAs?$AA?9?$AAw?$AAi?$AAn?$AA?9?$AAk?$AAe?$AAr?$AAn?$AAe?$AAl?$AA3?$AA2?$AA?9?$AAp?$AAa?$AAc?$AAk?$AAa?$AAg?$AAe?$AA?9?$AAc?$AAu?$AAr?$AAr@ 10014848     libucrt:winapi_thunks.obj
 0002:000018a0       ??_C@_1EG@DBIOJECG@?$AAe?$AAx?$AAt?$AA?9?$AAm?$AAs?$AA?9?$AAw?$AAi?$AAn?$AA?9?$AAn?$AAt?$AAu?$AAs?$AAe?$AAr?$AA?9?$AAd?$AAi?$AAa?$AAl?$AAo?$AAg?$AAb?$AAo?$AAx?$AA?9?$AAl?$AA1?$AA?9?$AA1@ 100148a0     libucrt:winapi_thunks.obj
 0002:000018e8       ??_C@_1EO@FIHMJCLF@?$AAe?$AAx?$AAt?$AA?9?$AAm?$AAs?$AA?9?$AAw?$AAi?$AAn?$AA?9?$AAn?$AAt?$AAu?$AAs?$AAe?$AAr?$AA?9?$AAw?$AAi?$AAn?$AAd?$AAo?$AAw?$AAs?$AAt?$AAa?$AAt?$AAi?$AAo?$AAn?$AA?9@ 100148e8     libucrt:winapi_thunks.obj
 0002:00001938       ??_C@_1O@BCCLBEOE@?$AAu?$AAs?$AAe?$AAr?$AA3?$AA2?$AA?$AA@ 10014938     libucrt:winapi_thunks.obj
 0002:00001970       ??_C@_0BA@HNOPNCHB@GetActiveWindow?$AA@ 10014970     libucrt:winapi_thunks.obj
 0002:00001988       ??_C@_0BE@JOGNEJCI@GetCurrentPackageId?$AA@ 10014988     libucrt:winapi_thunks.obj
 0002:000019a4       ??_C@_0BD@HHGDFDBJ@GetLastActivePopup?$AA@ 100149a4     libucrt:winapi_thunks.obj
 0002:000019c0       ??_C@_0BI@DFKBFLJE@GetProcessWindowStation?$AA@ 100149c0     libucrt:winapi_thunks.obj
 0002:000019e0       ??_C@_0BK@DEKFELLI@GetUserObjectInformationW?$AA@ 100149e0     libucrt:winapi_thunks.obj
 0002:00001a0c       ??_C@_0O@KKBNKAPF@LCMapStringEx?$AA@ 10014a0c     libucrt:winapi_thunks.obj
 0002:00001a24       ??_C@_0BB@HBDEELFH@LocaleNameToLCID?$AA@ 10014a24     libucrt:winapi_thunks.obj
 0002:00001a40       ??_C@_0M@CHKKJDAI@MessageBoxA?$AA@ 10014a40     libucrt:winapi_thunks.obj
 0002:00001a54       ??_C@_0M@DLDCCGNP@MessageBoxW?$AA@ 10014a54     libucrt:winapi_thunks.obj
 0002:00001a70       ??_C@_1M@HPNHIDJI@?$AAj?$AAa?$AA?9?$AAJ?$AAP?$AA?$AA@ 10014a70     libucrt:mbctype.obj
 0002:00001a7c       ??_C@_1M@BIBDDEMK@?$AAz?$AAh?$AA?9?$AAC?$AAN?$AA?$AA@ 10014a7c     libucrt:mbctype.obj
 0002:00001a88       ??_C@_1M@JLOOOEGK@?$AAk?$AAo?$AA?9?$AAK?$AAR?$AA?$AA@ 10014a88     libucrt:mbctype.obj
 0002:00001a94       ??_C@_1M@CLNBBOPM@?$AAz?$AAh?$AA?9?$AAT?$AAW?$AA?$AA@ 10014a94     libucrt:mbctype.obj
 0002:00001aa0       ??_C@_03OEIAHPBN@INF?$AA@  10014aa0     libucrt:cvt.obj
 0002:00001aa4       ??_C@_03OJHLLCGB@inf?$AA@  10014aa4     libucrt:cvt.obj
 0002:00001aa8       ??_C@_03LKNCIKJB@NAN?$AA@  10014aa8     libucrt:cvt.obj
 0002:00001aac       ??_C@_03LHCJEHON@nan?$AA@  10014aac     libucrt:cvt.obj
 0002:00001ab0       ??_C@_09OFJJIMPC@NAN?$CISNAN?$CJ?$AA@ 10014ab0     libucrt:cvt.obj
 0002:00001abc       ??_C@_09IPFBKMDL@nan?$CIsnan?$CJ?$AA@ 10014abc     libucrt:cvt.obj
 0002:00001ac8       ??_C@_08IKHNHAJ@NAN?$CIIND?$CJ?$AA@ 10014ac8     libucrt:cvt.obj
 0002:00001ad4       ??_C@_08OFCDMILK@nan?$CIind?$CJ?$AA@ 10014ad4     libucrt:cvt.obj
 0002:00001ae0       ??_C@_05KLBDPFGC@e?$CL000?$AA@ 10014ae0     libucrt:cvt.obj
 0002:00001ae8       __wctype                   10014ae8     libucrt:ctype.obj
 0002:00001cf0       ___newctype                10014cf0     libucrt:ctype.obj
 0002:00001ff0       ___newclmap                10014ff0     libucrt:ctype.obj
 0002:00002170       ___newcumap                10015170     libucrt:ctype.obj
 0002:000022f0       ??_C@_15PJPFLCCM@?$AAu?$AAk?$AA?$AA@ 100152f0     libucrt:get_qualified_locale.obj
 0002:00002a18       ??_C@_15EMKDOKLE@?$AAa?$AAr?$AA?$AA@ 10015a18     libucrt:lcidtoname_downlevel.obj
 0002:00002a20       ??_C@_15KNPADPLH@?$AAb?$AAg?$AA?$AA@ 10015a20     libucrt:lcidtoname_downlevel.obj
 0002:00002a28       ??_C@_15EDMHLDMO@?$AAc?$AAa?$AA?$AA@ 10015a28     libucrt:lcidtoname_downlevel.obj
 0002:00002a30       ??_C@_1O@BPEAJADD@?$AAz?$AAh?$AA?9?$AAC?$AAH?$AAS?$AA?$AA@ 10015a30     libucrt:lcidtoname_downlevel.obj
 0002:00002a40       ??_C@_15LJNHCMNK@?$AAc?$AAs?$AA?$AA@ 10015a40     libucrt:lcidtoname_downlevel.obj
 0002:00002a48       ??_C@_15FOMCIDHG@?$AAd?$AAa?$AA?$AA@ 10015a48     libucrt:lcidtoname_downlevel.obj
 0002:00002a50       ??_C@_15NBKABECB@?$AAd?$AAe?$AA?$AA@ 10015a50     libucrt:lcidtoname_downlevel.obj
 0002:00002a58       ??_C@_15GHPEIIAO@?$AAe?$AAl?$AA?$AA@ 10015a58     libucrt:lcidtoname_downlevel.obj
 0002:00002a60       ??_C@_15MNPNEAIF@?$AAe?$AAn?$AA?$AA@ 10015a60     libucrt:lcidtoname_downlevel.obj
 0002:00002a68       ??_C@_15GPIOMPMH@?$AAe?$AAs?$AA?$AA@ 10015a68     libucrt:lcidtoname_downlevel.obj
 0002:00002a70       ??_C@_15NGLOAKJC@?$AAf?$AAi?$AA?$AA@ 10015a70     libucrt:lcidtoname_downlevel.obj
 0002:00002a78       ??_C@_15FBKGNKAM@?$AAf?$AAr?$AA?$AA@ 10015a78     libucrt:lcidtoname_downlevel.obj
 0002:00002a80       ??_C@_15KGGCNEFK@?$AAh?$AAe?$AA?$AA@ 10015a80     libucrt:lcidtoname_downlevel.obj
 0002:00002a88       ??_C@_15PGHLIDMF@?$AAh?$AAu?$AA?$AA@ 10015a88     libucrt:lcidtoname_downlevel.obj
 0002:00002a90       ??_C@_15BIEMAPLM@?$AAi?$AAs?$AA?$AA@ 10015a90     libucrt:lcidtoname_downlevel.obj
 0002:00002a98       ??_C@_15IFJLDHAF@?$AAi?$AAt?$AA?$AA@ 10015a98     libucrt:lcidtoname_downlevel.obj
 0002:00002aa0       ??_C@_15GEMIOCAG@?$AAj?$AAa?$AA?$AA@ 10015aa0     libucrt:lcidtoname_downlevel.obj
 0002:00002aa8       ??_C@_15EPELEGJA@?$AAk?$AAo?$AA?$AA@ 10015aa8     libucrt:lcidtoname_downlevel.obj
 0002:00002ab0       ??_C@_15NDDHIMN@?$AAn?$AAl?$AA?$AA@ 10015ab0     libucrt:lcidtoname_downlevel.obj
 0002:00002ab8       ??_C@_15BPIGNHCD@?$AAn?$AAo?$AA?$AA@ 10015ab8     libucrt:lcidtoname_downlevel.obj
 0002:00002ac0       ??_C@_15DEOPBLCG@?$AAp?$AAl?$AA?$AA@ 10015ac0     libucrt:lcidtoname_downlevel.obj
 0002:00002ac8       ??_C@_15KBECGEFG@?$AAp?$AAt?$AA?$AA@ 10015ac8     libucrt:lcidtoname_downlevel.obj
 0002:00002ad0       ??_C@_15GLJCBFMD@?$AAr?$AAo?$AA?$AA@ 10015ad0     libucrt:lcidtoname_downlevel.obj
 0002:00002ad8       ??_C@_15FEDGKCDI@?$AAr?$AAu?$AA?$AA@ 10015ad8     libucrt:lcidtoname_downlevel.obj
 0002:00002ae0       ??_C@_15GLKMLLHM@?$AAh?$AAr?$AA?$AA@ 10015ae0     libucrt:lcidtoname_downlevel.obj
 0002:00002ae8       ??_C@_15CPKMFBDB@?$AAs?$AAk?$AA?$AA@ 10015ae8     libucrt:lcidtoname_downlevel.obj
 0002:00002af0       ??_C@_15BAAIOGMK@?$AAs?$AAq?$AA?$AA@ 10015af0     libucrt:lcidtoname_downlevel.obj
 0002:00002af8       ??_C@_15INNPNOHD@?$AAs?$AAv?$AA?$AA@ 10015af8     libucrt:lcidtoname_downlevel.obj
 0002:00002b00       ??_C@_15CABMMOGH@?$AAt?$AAh?$AA?$AA@ 10015b00     libucrt:lcidtoname_downlevel.obj
 0002:00002b08       ??_C@_15BPLIHJJM@?$AAt?$AAr?$AA?$AA@ 10015b08     libucrt:lcidtoname_downlevel.obj
 0002:00002b10       ??_C@_15NEOEKKDJ@?$AAu?$AAr?$AA?$AA@ 10015b10     libucrt:lcidtoname_downlevel.obj
 0002:00002b18       ??_C@_15NFICGAJK@?$AAi?$AAd?$AA?$AA@ 10015b18     libucrt:lcidtoname_downlevel.obj
 0002:00002b20       ??_C@_15HPJPHDM@?$AAb?$AAe?$AA?$AA@ 10015b20     libucrt:lcidtoname_downlevel.obj
 0002:00002b28       ??_C@_15LCHLGJII@?$AAs?$AAl?$AA?$AA@ 10015b28     libucrt:lcidtoname_downlevel.obj
 0002:00002b30       ??_C@_15PCFJPHHO@?$AAe?$AAt?$AA?$AA@ 10015b30     libucrt:lcidtoname_downlevel.obj
 0002:00002b38       ??_C@_15HPFPGODN@?$AAl?$AAv?$AA?$AA@ 10015b38     libucrt:lcidtoname_downlevel.obj
 0002:00002b40       ??_C@_15NFFGKGLG@?$AAl?$AAt?$AA?$AA@ 10015b40     libucrt:lcidtoname_downlevel.obj
 0002:00002b48       ??_C@_15BDAKCCHN@?$AAf?$AAa?$AA?$AA@ 10015b48     libucrt:lcidtoname_downlevel.obj
 0002:00002b50       ??_C@_15NFGIAIAJ@?$AAv?$AAi?$AA?$AA@ 10015b50     libucrt:lcidtoname_downlevel.obj
 0002:00002b58       ??_C@_15LMKNDMHN@?$AAh?$AAy?$AA?$AA@ 10015b58     libucrt:lcidtoname_downlevel.obj
 0002:00002b60       ??_C@_15IJBHMCFL@?$AAa?$AAz?$AA?$AA@ 10015b60     libucrt:lcidtoname_downlevel.obj
 0002:00002b68       ??_C@_15EKOFJABL@?$AAe?$AAu?$AA?$AA@ 10015b68     libucrt:lcidtoname_downlevel.obj
 0002:00002b70       ??_C@_15BGHADCNK@?$AAm?$AAk?$AA?$AA@ 10015b70     libucrt:lcidtoname_downlevel.obj
 0002:00002b78       ??_C@_15JDNICKHM@?$AAa?$AAf?$AA?$AA@ 10015b78     libucrt:lcidtoname_downlevel.obj
 0002:00002b80       ??_C@_15KPJEDBKD@?$AAk?$AAa?$AA?$AA@ 10015b80     libucrt:lcidtoname_downlevel.obj
 0002:00002b88       ??_C@_15PDNFFFEO@?$AAf?$AAo?$AA?$AA@ 10015b88     libucrt:lcidtoname_downlevel.obj
 0002:00002b90       ??_C@_15OMLEGLOC@?$AAh?$AAi?$AA?$AA@ 10015b90     libucrt:lcidtoname_downlevel.obj
 0002:00002b98       ??_C@_15IDNNENKK@?$AAm?$AAs?$AA?$AA@ 10015b98     libucrt:lcidtoname_downlevel.obj
 0002:00002ba0       ??_C@_15MACJNBMH@?$AAk?$AAk?$AA?$AA@ 10015ba0     libucrt:lcidtoname_downlevel.obj
 0002:00002ba8       ??_C@_15DKDJEOND@?$AAk?$AAy?$AA?$AA@ 10015ba8     libucrt:lcidtoname_downlevel.obj
 0002:00002bb0       ??_C@_15DFGDLJBG@?$AAs?$AAw?$AA?$AA@ 10015bb0     libucrt:lcidtoname_downlevel.obj
 0002:00002bb8       ??_C@_15BBFAICNG@?$AAu?$AAz?$AA?$AA@ 10015bb8     libucrt:lcidtoname_downlevel.obj
 0002:00002bc0       ??_C@_15DKNDCGEA@?$AAt?$AAt?$AA?$AA@ 10015bc0     libucrt:lcidtoname_downlevel.obj
 0002:00002bc8       ??_C@_15MGIFMDPL@?$AAp?$AAa?$AA?$AA@ 10015bc8     libucrt:lcidtoname_downlevel.obj
 0002:00002bd0       ??_C@_15HCNDBBA@?$AAg?$AAu?$AA?$AA@ 10015bd0     libucrt:lcidtoname_downlevel.obj
 0002:00002bd8       ??_C@_15FNBEIBON@?$AAt?$AAa?$AA?$AA@ 10015bd8     libucrt:lcidtoname_downlevel.obj
 0002:00002be0       ??_C@_15NCHGBGLK@?$AAt?$AAe?$AA?$AA@ 10015be0     libucrt:lcidtoname_downlevel.obj
 0002:00002be8       ??_C@_15PHPHCBPF@?$AAk?$AAn?$AA?$AA@ 10015be8     libucrt:lcidtoname_downlevel.obj
 0002:00002bf0       ??_C@_15DLGBCKMP@?$AAm?$AAr?$AA?$AA@ 10015bf0     libucrt:lcidtoname_downlevel.obj
 0002:00002bf8       ??_C@_15EABBLBFF@?$AAs?$AAa?$AA?$AA@ 10015bf8     libucrt:lcidtoname_downlevel.obj
 0002:00002c00       ??_C@_15CBKOMCOI@?$AAm?$AAn?$AA?$AA@ 10015c00     libucrt:lcidtoname_downlevel.obj
 0002:00002c08       ??_C@_15CKDMCJAF@?$AAg?$AAl?$AA?$AA@ 10015c08     libucrt:lcidtoname_downlevel.obj
 0002:00002c10       ??_C@_17CNJFBPG@?$AAk?$AAo?$AAk?$AA?$AA@ 10015c10     libucrt:lcidtoname_downlevel.obj
 0002:00002c18       ??_C@_17FFBJICPL@?$AAs?$AAy?$AAr?$AA?$AA@ 10015c18     libucrt:lcidtoname_downlevel.obj
 0002:00002c20       ??_C@_17KPNDCPAF@?$AAd?$AAi?$AAv?$AA?$AA@ 10015c20     libucrt:lcidtoname_downlevel.obj
 0002:00002c28       ??_C@_11LOCGONAA@?$AA?$AA@ 10015c28     libucrt:lcidtoname_downlevel.obj
 0002:00002c2c       ??_C@_1M@OKAHONE@?$AAa?$AAr?$AA?9?$AAS?$AAA?$AA?$AA@ 10015c2c     libucrt:lcidtoname_downlevel.obj
 0002:00002c38       ??_C@_1M@FFFIGIGK@?$AAb?$AAg?$AA?9?$AAB?$AAG?$AA?$AA@ 10015c38     libucrt:lcidtoname_downlevel.obj
 0002:00002c44       ??_C@_1M@BJNKEDC@?$AAc?$AAa?$AA?9?$AAE?$AAS?$AA?$AA@ 10015c44     libucrt:lcidtoname_downlevel.obj
 0002:00002c50       ??_C@_1M@IJJHFJHA@?$AAc?$AAs?$AA?9?$AAC?$AAZ?$AA?$AA@ 10015c50     libucrt:lcidtoname_downlevel.obj
 0002:00002c5c       ??_C@_1M@CLPEOBGI@?$AAd?$AAa?$AA?9?$AAD?$AAK?$AA?$AA@ 10015c5c     libucrt:lcidtoname_downlevel.obj
 0002:00002c68       ??_C@_1M@MCMADGCB@?$AAd?$AAe?$AA?9?$AAD?$AAE?$AA?$AA@ 10015c68     libucrt:lcidtoname_downlevel.obj
 0002:00002c74       ??_C@_1M@OOCKEMAM@?$AAe?$AAl?$AA?9?$AAG?$AAR?$AA?$AA@ 10015c74     libucrt:lcidtoname_downlevel.obj
 0002:00002c80       ??_C@_1M@DDNJFGID@?$AAf?$AAi?$AA?9?$AAF?$AAI?$AA?$AA@ 10015c80     libucrt:lcidtoname_downlevel.obj
 0002:00002c8c       ??_C@_1M@GLIPPMAC@?$AAf?$AAr?$AA?9?$AAF?$AAR?$AA?$AA@ 10015c8c     libucrt:lcidtoname_downlevel.obj
 0002:00002c98       ??_C@_1M@GFMCHPE@?$AAh?$AAe?$AA?9?$AAI?$AAL?$AA?$AA@ 10015c98     libucrt:lcidtoname_downlevel.obj
 0002:00002ca4       ??_C@_1M@MHLPGNKM@?$AAh?$AAu?$AA?9?$AAH?$AAU?$AA?$AA@ 10015ca4     libucrt:lcidtoname_downlevel.obj
 0002:00002cb0       ??_C@_1M@LPDDNNPN@?$AAi?$AAs?$AA?9?$AAI?$AAS?$AA?$AA@ 10015cb0     libucrt:lcidtoname_downlevel.obj
 0002:00002cbc       ??_C@_1M@MADIPODN@?$AAi?$AAt?$AA?9?$AAI?$AAT?$AA?$AA@ 10015cbc     libucrt:lcidtoname_downlevel.obj
 0002:00002cc8       ??_C@_1M@IHBJJGG@?$AAn?$AAl?$AA?9?$AAN?$AAL?$AA?$AA@ 10015cc8     libucrt:lcidtoname_downlevel.obj
 0002:00002cd4       ??_C@_1M@EANAGDL@?$AAn?$AAb?$AA?9?$AAN?$AAO?$AA?$AA@ 10015cd4     libucrt:lcidtoname_downlevel.obj
 0002:00002ce0       ??_C@_1M@NEIEMEGP@?$AAp?$AAl?$AA?9?$AAP?$AAL?$AA?$AA@ 10015ce0     libucrt:lcidtoname_downlevel.obj
 0002:00002cec       ??_C@_1M@BOCFIGEP@?$AAp?$AAt?$AA?9?$AAB?$AAR?$AA?$AA@ 10015cec     libucrt:lcidtoname_downlevel.obj
 0002:00002cf8       ??_C@_1M@IMPFOPBG@?$AAr?$AAo?$AA?9?$AAR?$AAO?$AA?$AA@ 10015cf8     libucrt:lcidtoname_downlevel.obj
 0002:00002d04       ??_C@_1M@IDNNEJMM@?$AAr?$AAu?$AA?9?$AAR?$AAU?$AA?$AA@ 10015d04     libucrt:lcidtoname_downlevel.obj
 0002:00002d10       ??_C@_1M@LILEEOGM@?$AAh?$AAr?$AA?9?$AAH?$AAR?$AA?$AA@ 10015d10     libucrt:lcidtoname_downlevel.obj
 0002:00002d1c       ??_C@_1M@FKIFEHPB@?$AAs?$AAk?$AA?9?$AAS?$AAK?$AA?$AA@ 10015d1c     libucrt:lcidtoname_downlevel.obj
 0002:00002d28       ??_C@_1M@LJMAMNPJ@?$AAs?$AAq?$AA?9?$AAA?$AAL?$AA?$AA@ 10015d28     libucrt:lcidtoname_downlevel.obj
 0002:00002d34       ??_C@_1M@GIAKDKJK@?$AAs?$AAv?$AA?9?$AAS?$AAE?$AA?$AA@ 10015d34     libucrt:lcidtoname_downlevel.obj
 0002:00002d40       ??_C@_1M@MKJKIKCL@?$AAt?$AAh?$AA?9?$AAT?$AAH?$AA?$AA@ 10015d40     libucrt:lcidtoname_downlevel.obj
 0002:00002d4c       ??_C@_1M@MFLCCMPB@?$AAt?$AAr?$AA?9?$AAT?$AAR?$AA?$AA@ 10015d4c     libucrt:lcidtoname_downlevel.obj
 0002:00002d58       ??_C@_1M@OIJHDKJN@?$AAu?$AAr?$AA?9?$AAP?$AAK?$AA?$AA@ 10015d58     libucrt:lcidtoname_downlevel.obj
 0002:00002d64       ??_C@_1M@LHIPCIEK@?$AAi?$AAd?$AA?9?$AAI?$AAD?$AA?$AA@ 10015d64     libucrt:lcidtoname_downlevel.obj
 0002:00002d70       ??_C@_1M@MFMOBGI@?$AAu?$AAk?$AA?9?$AAU?$AAA?$AA?$AA@ 10015d70     libucrt:lcidtoname_downlevel.obj
 0002:00002d7c       ??_C@_1M@OBGLJIPL@?$AAb?$AAe?$AA?9?$AAB?$AAY?$AA?$AA@ 10015d7c     libucrt:lcidtoname_downlevel.obj
 0002:00002d88       ??_C@_1M@BCFAJEAD@?$AAs?$AAl?$AA?9?$AAS?$AAI?$AA?$AA@ 10015d88     libucrt:lcidtoname_downlevel.obj
 0002:00002d94       ??_C@_1M@FKFFEDDN@?$AAe?$AAt?$AA?9?$AAE?$AAE?$AA?$AA@ 10015d94     libucrt:lcidtoname_downlevel.obj
 0002:00002da0       ??_C@_1M@KGKKAACI@?$AAl?$AAv?$AA?9?$AAL?$AAV?$AA?$AA@ 10015da0     libucrt:lcidtoname_downlevel.obj
 0002:00002dac       ??_C@_1M@IFGBIJO@?$AAl?$AAt?$AA?9?$AAL?$AAT?$AA?$AA@ 10015dac     libucrt:lcidtoname_downlevel.obj
 0002:00002db8       ??_C@_1M@FGEAHEDM@?$AAf?$AAa?$AA?9?$AAI?$AAR?$AA?$AA@ 10015db8     libucrt:lcidtoname_downlevel.obj
 0002:00002dc4       ??_C@_1M@KBMAIBFN@?$AAv?$AAi?$AA?9?$AAV?$AAN?$AA?$AA@ 10015dc4     libucrt:lcidtoname_downlevel.obj
 0002:00002dd0       ??_C@_1M@GPCBKDJK@?$AAh?$AAy?$AA?9?$AAA?$AAM?$AA?$AA@ 10015dd0     libucrt:lcidtoname_downlevel.obj
 0002:00002ddc       ??_C@_1BG@BECMDDJB@?$AAa?$AAz?$AA?9?$AAA?$AAZ?$AA?9?$AAL?$AAa?$AAt?$AAn?$AA?$AA@ 10015ddc     libucrt:lcidtoname_downlevel.obj
 0002:00002df4       ??_C@_1M@MAOFCAEA@?$AAe?$AAu?$AA?9?$AAE?$AAS?$AA?$AA@ 10015df4     libucrt:lcidtoname_downlevel.obj
 0002:00002e00       ??_C@_1M@IGHABKPI@?$AAm?$AAk?$AA?9?$AAM?$AAK?$AA?$AA@ 10015e00     libucrt:lcidtoname_downlevel.obj
 0002:00002e0c       ??_C@_1M@IAIGNEJG@?$AAt?$AAn?$AA?9?$AAZ?$AAA?$AA?$AA@ 10015e0c     libucrt:lcidtoname_downlevel.obj
 0002:00002e18       ??_C@_1M@IIJCOJFA@?$AAx?$AAh?$AA?9?$AAZ?$AAA?$AA?$AA@ 10015e18     libucrt:lcidtoname_downlevel.obj
 0002:00002e24       ??_C@_1M@LGPJHNJH@?$AAz?$AAu?$AA?9?$AAZ?$AAA?$AA?$AA@ 10015e24     libucrt:lcidtoname_downlevel.obj
 0002:00002e30       ??_C@_1M@HOKAOIO@?$AAa?$AAf?$AA?9?$AAZ?$AAA?$AA?$AA@ 10015e30     libucrt:lcidtoname_downlevel.obj
 0002:00002e3c       ??_C@_1M@DPCLHLIE@?$AAk?$AAa?$AA?9?$AAG?$AAE?$AA?$AA@ 10015e3c     libucrt:lcidtoname_downlevel.obj
 0002:00002e48       ??_C@_1M@BLKMHJBI@?$AAf?$AAo?$AA?9?$AAF?$AAO?$AA?$AA@ 10015e48     libucrt:lcidtoname_downlevel.obj
 0002:00002e54       ??_C@_1M@LGGJAPPB@?$AAh?$AAi?$AA?9?$AAI?$AAN?$AA?$AA@ 10015e54     libucrt:lcidtoname_downlevel.obj
 0002:00002e60       ??_C@_1M@FIKPIHFE@?$AAm?$AAt?$AA?9?$AAM?$AAT?$AA?$AA@ 10015e60     libucrt:lcidtoname_downlevel.obj
 0002:00002e6c       ??_C@_1M@HEGGPBFA@?$AAs?$AAe?$AA?9?$AAN?$AAO?$AA?$AA@ 10015e6c     libucrt:lcidtoname_downlevel.obj
 0002:00002e78       ??_C@_1M@EIBJEEPA@?$AAm?$AAs?$AA?9?$AAM?$AAY?$AA?$AA@ 10015e78     libucrt:lcidtoname_downlevel.obj
 0002:00002e84       ??_C@_1M@FHLBGMPP@?$AAk?$AAk?$AA?9?$AAK?$AAZ?$AA?$AA@ 10015e84     libucrt:lcidtoname_downlevel.obj
 0002:00002e90       ??_C@_1M@NGJJLCGI@?$AAk?$AAy?$AA?9?$AAK?$AAG?$AA?$AA@ 10015e90     libucrt:lcidtoname_downlevel.obj
 0002:00002e9c       ??_C@_1M@GIENNBFC@?$AAs?$AAw?$AA?9?$AAK?$AAE?$AA?$AA@ 10015e9c     libucrt:lcidtoname_downlevel.obj
 0002:00002ea8       ??_C@_1BG@NDGMJIMJ@?$AAu?$AAz?$AA?9?$AAU?$AAZ?$AA?9?$AAL?$AAa?$AAt?$AAn?$AA?$AA@ 10015ea8     libucrt:lcidtoname_downlevel.obj
 0002:00002ec0       ??_C@_1M@IDCCIHBC@?$AAt?$AAt?$AA?9?$AAR?$AAU?$AA?$AA@ 10015ec0     libucrt:lcidtoname_downlevel.obj
 0002:00002ecc       ??_C@_1M@LOICPMOJ@?$AAb?$AAn?$AA?9?$AAI?$AAN?$AA?$AA@ 10015ecc     libucrt:lcidtoname_downlevel.obj
 0002:00002ed8       ??_C@_1M@KPKKNEAH@?$AAp?$AAa?$AA?9?$AAI?$AAN?$AA?$AA@ 10015ed8     libucrt:lcidtoname_downlevel.obj
 0002:00002ee4       ??_C@_1M@PJGPPBOG@?$AAg?$AAu?$AA?9?$AAI?$AAN?$AA?$AA@ 10015ee4     libucrt:lcidtoname_downlevel.obj
 0002:00002ef0       ??_C@_1M@KMKMOPHI@?$AAt?$AAa?$AA?9?$AAI?$AAN?$AA?$AA@ 10015ef0     libucrt:lcidtoname_downlevel.obj
 0002:00002efc       ??_C@_1M@KFEHEPAC@?$AAt?$AAe?$AA?9?$AAI?$AAN?$AA?$AA@ 10015efc     libucrt:lcidtoname_downlevel.obj
 0002:00002f08       ??_C@_1M@CDCLMGHI@?$AAk?$AAn?$AA?9?$AAI?$AAN?$AA?$AA@ 10015f08     libucrt:lcidtoname_downlevel.obj
 0002:00002f14       ??_C@_1M@MIODLDKF@?$AAm?$AAl?$AA?9?$AAI?$AAN?$AA?$AA@ 10015f14     libucrt:lcidtoname_downlevel.obj
 0002:00002f20       ??_C@_1M@PBIEACPO@?$AAm?$AAr?$AA?9?$AAI?$AAN?$AA?$AA@ 10015f20     libucrt:lcidtoname_downlevel.obj
 0002:00002f2c       ??_C@_1M@NIDEAGPH@?$AAs?$AAa?$AA?9?$AAI?$AAN?$AA?$AA@ 10015f2c     libucrt:lcidtoname_downlevel.obj
 0002:00002f38       ??_C@_1M@FHIHCBIO@?$AAm?$AAn?$AA?9?$AAM?$AAN?$AA?$AA@ 10015f38     libucrt:lcidtoname_downlevel.obj
 0002:00002f44       ??_C@_1M@JAIJPENP@?$AAc?$AAy?$AA?9?$AAG?$AAB?$AA?$AA@ 10015f44     libucrt:lcidtoname_downlevel.obj
 0002:00002f50       ??_C@_1M@PHGFBEPN@?$AAg?$AAl?$AA?9?$AAE?$AAS?$AA?$AA@ 10015f50     libucrt:lcidtoname_downlevel.obj
 0002:00002f5c       ??_C@_1O@KPIPDNCP@?$AAk?$AAo?$AAk?$AA?9?$AAI?$AAN?$AA?$AA@ 10015f5c     libucrt:lcidtoname_downlevel.obj
 0002:00002f6c       ??_C@_1O@KNHJLDJA@?$AAs?$AAy?$AAr?$AA?9?$AAS?$AAY?$AA?$AA@ 10015f6c     libucrt:lcidtoname_downlevel.obj
 0002:00002f7c       ??_C@_1O@MKEKBLAH@?$AAd?$AAi?$AAv?$AA?9?$AAM?$AAV?$AA?$AA@ 10015f7c     libucrt:lcidtoname_downlevel.obj
 0002:00002f8c       ??_C@_1O@OHDCKDDF@?$AAq?$AAu?$AAz?$AA?9?$AAB?$AAO?$AA?$AA@ 10015f8c     libucrt:lcidtoname_downlevel.obj
 0002:00002f9c       ??_C@_1M@LEPJNLFD@?$AAn?$AAs?$AA?9?$AAZ?$AAA?$AA?$AA@ 10015f9c     libucrt:lcidtoname_downlevel.obj
 0002:00002fa8       ??_C@_1M@OMLEIIJB@?$AAm?$AAi?$AA?9?$AAN?$AAZ?$AA?$AA@ 10015fa8     libucrt:lcidtoname_downlevel.obj
 0002:00002fb4       ??_C@_1M@PMPEAILG@?$AAa?$AAr?$AA?9?$AAI?$AAQ?$AA?$AA@ 10015fb4     libucrt:lcidtoname_downlevel.obj
 0002:00002fc0       ??_C@_1M@CNKPNOEE@?$AAd?$AAe?$AA?9?$AAC?$AAH?$AA?$AA@ 10015fc0     libucrt:lcidtoname_downlevel.obj
 0002:00002fcc       ??_C@_1M@LKMGMLKO@?$AAe?$AAn?$AA?9?$AAG?$AAB?$AA?$AA@ 10015fcc     libucrt:lcidtoname_downlevel.obj
 0002:00002fd8       ??_C@_1M@PGKJFFGL@?$AAe?$AAs?$AA?9?$AAM?$AAX?$AA?$AA@ 10015fd8     libucrt:lcidtoname_downlevel.obj
 0002:00002fe4       ??_C@_1M@DNNANBDC@?$AAf?$AAr?$AA?9?$AAB?$AAE?$AA?$AA@ 10015fe4     libucrt:lcidtoname_downlevel.obj
 0002:00002ff0       ??_C@_1M@HLGMDFHM@?$AAi?$AAt?$AA?9?$AAC?$AAH?$AA?$AA@ 10015ff0     libucrt:lcidtoname_downlevel.obj
 0002:00002ffc       ??_C@_1M@CLLBGJH@?$AAn?$AAl?$AA?9?$AAB?$AAE?$AA?$AA@ 10015ffc     libucrt:lcidtoname_downlevel.obj
 0002:00003008       ??_C@_1M@BODBOGLF@?$AAn?$AAn?$AA?9?$AAN?$AAO?$AA?$AA@ 10016008     libucrt:lcidtoname_downlevel.obj
 0002:00003014       ??_C@_1M@HFFAHKAD@?$AAp?$AAt?$AA?9?$AAP?$AAT?$AA?$AA@ 10016014     libucrt:lcidtoname_downlevel.obj
 0002:00003020       ??_C@_1BG@LNOAKHIE@?$AAs?$AAr?$AA?9?$AAS?$AAP?$AA?9?$AAL?$AAa?$AAt?$AAn?$AA?$AA@ 10016020     libucrt:lcidtoname_downlevel.obj
 0002:00003038       ??_C@_1M@HBMHBGAK@?$AAs?$AAv?$AA?9?$AAF?$AAI?$AA?$AA@ 10016038     libucrt:lcidtoname_downlevel.obj
 0002:00003044       ??_C@_1BG@DGCJGJBE@?$AAa?$AAz?$AA?9?$AAA?$AAZ?$AA?9?$AAC?$AAy?$AAr?$AAl?$AA?$AA@ 10016044     libucrt:lcidtoname_downlevel.obj
 0002:0000305c       ??_C@_1M@KEJDAAHB@?$AAs?$AAe?$AA?9?$AAS?$AAE?$AA?$AA@ 1001605c     libucrt:lcidtoname_downlevel.obj
 0002:00003068       ??_C@_1M@HEIBJJAD@?$AAm?$AAs?$AA?9?$AAB?$AAN?$AA?$AA@ 10016068     libucrt:lcidtoname_downlevel.obj
 0002:00003074       ??_C@_1BG@PBGJMCEM@?$AAu?$AAz?$AA?9?$AAU?$AAZ?$AA?9?$AAC?$AAy?$AAr?$AAl?$AA?$AA@ 10016074     libucrt:lcidtoname_downlevel.obj
 0002:0000308c       ??_C@_1O@LAOBCMDF@?$AAq?$AAu?$AAz?$AA?9?$AAE?$AAC?$AA?$AA@ 1001608c     libucrt:lcidtoname_downlevel.obj
 0002:0000309c       ??_C@_1M@POEEMAIO@?$AAa?$AAr?$AA?9?$AAE?$AAG?$AA?$AA@ 1001609c     libucrt:lcidtoname_downlevel.obj
 0002:000030a8       ??_C@_1M@EFAKDEDL@?$AAz?$AAh?$AA?9?$AAH?$AAK?$AA?$AA@ 100160a8     libucrt:lcidtoname_downlevel.obj
 0002:000030b4       ??_C@_1M@HKKIJHGI@?$AAd?$AAe?$AA?9?$AAA?$AAT?$AA?$AA@ 100160b4     libucrt:lcidtoname_downlevel.obj
 0002:000030c0       ??_C@_1M@KBFBEHJF@?$AAe?$AAn?$AA?9?$AAA?$AAU?$AA?$AA@ 100160c0     libucrt:lcidtoname_downlevel.obj
 0002:000030cc       ??_C@_1M@MNPLFAAH@?$AAe?$AAs?$AA?9?$AAE?$AAS?$AA?$AA@ 100160cc     libucrt:lcidtoname_downlevel.obj
 0002:000030d8       ??_C@_1M@HJOOJFMA@?$AAf?$AAr?$AA?9?$AAC?$AAA?$AA?$AA@ 100160d8     libucrt:lcidtoname_downlevel.obj
 0002:000030e4       ??_C@_1BG@JPOFPNAB@?$AAs?$AAr?$AA?9?$AAS?$AAP?$AA?9?$AAC?$AAy?$AAr?$AAl?$AA?$AA@ 100160e4     libucrt:lcidtoname_downlevel.obj
 0002:000030fc       ??_C@_1M@LNFOCMOB@?$AAs?$AAe?$AA?9?$AAF?$AAI?$AA?$AA@ 100160fc     libucrt:lcidtoname_downlevel.obj
 0002:00003108       ??_C@_1O@MGJBOAMB@?$AAq?$AAu?$AAz?$AA?9?$AAP?$AAE?$AA?$AA@ 10016108     libucrt:lcidtoname_downlevel.obj
 0002:00003118       ??_C@_1M@GJINLBOK@?$AAa?$AAr?$AA?9?$AAL?$AAY?$AA?$AA@ 10016118     libucrt:lcidtoname_downlevel.obj
 0002:00003124       ??_C@_1M@GGMNHJNL@?$AAz?$AAh?$AA?9?$AAS?$AAG?$AA?$AA@ 10016124     libucrt:lcidtoname_downlevel.obj
 0002:00003130       ??_C@_1M@HOIKODND@?$AAd?$AAe?$AA?9?$AAL?$AAU?$AA?$AA@ 10016130     libucrt:lcidtoname_downlevel.obj
 0002:0000313c       ??_C@_1M@DDOCCGFG@?$AAe?$AAn?$AA?9?$AAC?$AAA?$AA?$AA@ 1001613c     libucrt:lcidtoname_downlevel.obj
 0002:00003148       ??_C@_1M@BNOEMJLF@?$AAe?$AAs?$AA?9?$AAG?$AAT?$AA?$AA@ 10016148     libucrt:lcidtoname_downlevel.obj
 0002:00003154       ??_C@_1M@EOGNKEK@?$AAf?$AAr?$AA?9?$AAC?$AAH?$AA?$AA@ 10016154     libucrt:lcidtoname_downlevel.obj
 0002:00003160       ??_C@_1M@FLIDJFHL@?$AAh?$AAr?$AA?9?$AAB?$AAA?$AA?$AA@ 10016160     libucrt:lcidtoname_downlevel.obj
 0002:0000316c       ??_C@_1O@FMCELNAJ@?$AAs?$AAm?$AAj?$AA?9?$AAN?$AAO?$AA?$AA@ 1001616c     libucrt:lcidtoname_downlevel.obj
 0002:0000317c       ??_C@_1M@JHGLJMGJ@?$AAa?$AAr?$AA?9?$AAD?$AAZ?$AA?$AA@ 1001617c     libucrt:lcidtoname_downlevel.obj
 0002:00003188       ??_C@_1M@JKKFDCNP@?$AAz?$AAh?$AA?9?$AAM?$AAO?$AA?$AA@ 10016188     libucrt:lcidtoname_downlevel.obj
 0002:00003194       ??_C@_1M@GEEFALPE@?$AAd?$AAe?$AA?9?$AAL?$AAI?$AA?$AA@ 10016194     libucrt:lcidtoname_downlevel.obj
 0002:000031a0       ??_C@_1M@IGEOFBG@?$AAe?$AAn?$AA?9?$AAN?$AAZ?$AA?$AA@ 100161a0     libucrt:lcidtoname_downlevel.obj
 0002:000031ac       ??_C@_1M@KDBONEHP@?$AAe?$AAs?$AA?9?$AAC?$AAR?$AA?$AA@ 100161ac     libucrt:lcidtoname_downlevel.obj
 0002:000031b8       ??_C@_1M@FHMDOHNN@?$AAf?$AAr?$AA?9?$AAL?$AAU?$AA?$AA@ 100161b8     libucrt:lcidtoname_downlevel.obj
 0002:000031c4       ??_C@_1BG@NFKKMAFG@?$AAb?$AAs?$AA?9?$AAB?$AAA?$AA?9?$AAL?$AAa?$AAt?$AAn?$AA?$AA@ 100161c4     libucrt:lcidtoname_downlevel.obj
 0002:000031dc       ??_C@_1O@IMNBEMCI@?$AAs?$AAm?$AAj?$AA?9?$AAS?$AAE?$AA?$AA@ 100161dc     libucrt:lcidtoname_downlevel.obj
 0002:000031ec       ??_C@_1M@DHHMBNDP@?$AAa?$AAr?$AA?9?$AAM?$AAA?$AA?$AA@ 100161ec     libucrt:lcidtoname_downlevel.obj
 0002:000031f8       ??_C@_1M@BNBLJCGH@?$AAe?$AAn?$AA?9?$AAI?$AAE?$AA?$AA@ 100161f8     libucrt:lcidtoname_downlevel.obj
 0002:00003204       ??_C@_1M@GEPAFMDL@?$AAe?$AAs?$AA?9?$AAP?$AAA?$AA?$AA@ 10016204     libucrt:lcidtoname_downlevel.obj
 0002:00003210       ??_C@_1M@OJONDMDL@?$AAf?$AAr?$AA?9?$AAM?$AAC?$AA?$AA@ 10016210     libucrt:lcidtoname_downlevel.obj
 0002:0000321c       ??_C@_1BG@OBCNFJB@?$AAs?$AAr?$AA?9?$AAB?$AAA?$AA?9?$AAL?$AAa?$AAt?$AAn?$AA?$AA@ 1001621c     libucrt:lcidtoname_downlevel.obj
 0002:00003234       ??_C@_1O@KEMEEGPO@?$AAs?$AAm?$AAa?$AA?9?$AAN?$AAO?$AA?$AA@ 10016234     libucrt:lcidtoname_downlevel.obj
 0002:00003244       ??_C@_1M@ELMGFODK@?$AAa?$AAr?$AA?9?$AAT?$AAN?$AA?$AA@ 10016244     libucrt:lcidtoname_downlevel.obj
 0002:00003250       ??_C@_1M@BHDLHFAF@?$AAe?$AAn?$AA?9?$AAZ?$AAA?$AA?$AA@ 10016250     libucrt:lcidtoname_downlevel.obj
 0002:0000325c       ??_C@_1M@BMGIGLIF@?$AAe?$AAs?$AA?9?$AAD?$AAO?$AA?$AA@ 1001625c     libucrt:lcidtoname_downlevel.obj
 0002:00003268       ??_C@_1BG@CMBHIPBE@?$AAs?$AAr?$AA?9?$AAB?$AAA?$AA?9?$AAC?$AAy?$AAr?$AAl?$AA?$AA@ 10016268     libucrt:lcidtoname_downlevel.obj
 0002:00003280       ??_C@_1O@HEDBLHNP@?$AAs?$AAm?$AAa?$AA?9?$AAS?$AAE?$AA?$AA@ 10016280     libucrt:lcidtoname_downlevel.obj
 0002:00003290       ??_C@_1M@DAGCADIM@?$AAa?$AAr?$AA?9?$AAO?$AAM?$AA?$AA@ 10016290     libucrt:lcidtoname_downlevel.obj
 0002:0000329c       ??_C@_1M@FODLMICG@?$AAe?$AAn?$AA?9?$AAJ?$AAM?$AA?$AA@ 1001629c     libucrt:lcidtoname_downlevel.obj
 0002:000032a8       ??_C@_1M@DNMLCIHB@?$AAe?$AAs?$AA?9?$AAV?$AAE?$AA?$AA@ 100162a8     libucrt:lcidtoname_downlevel.obj
 0002:000032b4       ??_C@_1O@EOKHMKJK@?$AAs?$AAm?$AAs?$AA?9?$AAF?$AAI?$AA?$AA@ 100162b4     libucrt:lcidtoname_downlevel.obj
 0002:000032c4       ??_C@_1M@CAFJMKOF@?$AAa?$AAr?$AA?9?$AAY?$AAE?$AA?$AA@ 100162c4     libucrt:lcidtoname_downlevel.obj
 0002:000032d0       ??_C@_1M@CBFHIJLI@?$AAe?$AAn?$AA?9?$AAC?$AAB?$AA?$AA@ 100162d0     libucrt:lcidtoname_downlevel.obj
 0002:000032dc       ??_C@_1M@BGNFLDN@?$AAe?$AAs?$AA?9?$AAC?$AAO?$AA?$AA@ 100162dc     libucrt:lcidtoname_downlevel.obj
 0002:000032e8       ??_C@_1O@JMPHMAMC@?$AAs?$AAm?$AAn?$AA?9?$AAF?$AAI?$AA?$AA@ 100162e8     libucrt:lcidtoname_downlevel.obj
 0002:000032f8       ??_C@_1M@JLANABKE@?$AAa?$AAr?$AA?9?$AAS?$AAY?$AA?$AA@ 100162f8     libucrt:lcidtoname_downlevel.obj
 0002:00003304       ??_C@_1M@HPKGCFGN@?$AAe?$AAn?$AA?9?$AAB?$AAZ?$AA?$AA@ 10016304     libucrt:lcidtoname_downlevel.obj
 0002:00003310       ??_C@_1M@OLJCMLGM@?$AAe?$AAs?$AA?9?$AAP?$AAE?$AA?$AA@ 10016310     libucrt:lcidtoname_downlevel.obj
 0002:0000331c       ??_C@_1M@MKKGFKLE@?$AAa?$AAr?$AA?9?$AAJ?$AAO?$AA?$AA@ 1001631c     libucrt:lcidtoname_downlevel.obj
 0002:00003328       ??_C@_1M@EKPGLDNI@?$AAe?$AAn?$AA?9?$AAT?$AAT?$AA?$AA@ 10016328     libucrt:lcidtoname_downlevel.obj
 0002:00003334       ??_C@_1M@OONGHFHE@?$AAe?$AAs?$AA?9?$AAA?$AAR?$AA?$AA@ 10016334     libucrt:lcidtoname_downlevel.obj
 0002:00003340       ??_C@_1M@OOJFGBHE@?$AAa?$AAr?$AA?9?$AAL?$AAB?$AA?$AA@ 10016340     libucrt:lcidtoname_downlevel.obj
 0002:0000334c       ??_C@_1M@GCEJHNEG@?$AAe?$AAn?$AA?9?$AAZ?$AAW?$AA?$AA@ 1001634c     libucrt:lcidtoname_downlevel.obj
 0002:00003358       ??_C@_1M@JNOCAHJI@?$AAe?$AAs?$AA?9?$AAE?$AAC?$AA?$AA@ 10016358     libucrt:lcidtoname_downlevel.obj
 0002:00003364       ??_C@_1M@JEFHPGGB@?$AAa?$AAr?$AA?9?$AAK?$AAW?$AA?$AA@ 10016364     libucrt:lcidtoname_downlevel.obj
 0002:00003370       ??_C@_1M@MLKIBJOJ@?$AAe?$AAn?$AA?9?$AAP?$AAH?$AA?$AA@ 10016370     libucrt:lcidtoname_downlevel.obj
 0002:0000337c       ??_C@_1M@BDNIPEND@?$AAe?$AAs?$AA?9?$AAC?$AAL?$AA?$AA@ 1001637c     libucrt:lcidtoname_downlevel.obj
 0002:00003388       ??_C@_1M@MPNMEKBD@?$AAa?$AAr?$AA?9?$AAA?$AAE?$AA?$AA@ 10016388     libucrt:lcidtoname_downlevel.obj
 0002:00003394       ??_C@_1M@KBJALCPI@?$AAe?$AAs?$AA?9?$AAU?$AAY?$AA?$AA@ 10016394     libucrt:lcidtoname_downlevel.obj
 0002:000033a0       ??_C@_1M@LLCCOAGA@?$AAa?$AAr?$AA?9?$AAB?$AAH?$AA?$AA@ 100163a0     libucrt:lcidtoname_downlevel.obj
 0002:000033ac       ??_C@_1M@PBFNCDEL@?$AAe?$AAs?$AA?9?$AAP?$AAY?$AA?$AA@ 100163ac     libucrt:lcidtoname_downlevel.obj
 0002:000033b8       ??_C@_1M@EDGINPNP@?$AAa?$AAr?$AA?9?$AAQ?$AAA?$AA?$AA@ 100163b8     libucrt:lcidtoname_downlevel.obj
 0002:000033c4       ??_C@_1M@MKDBIIJI@?$AAe?$AAs?$AA?9?$AAB?$AAO?$AA?$AA@ 100163c4     libucrt:lcidtoname_downlevel.obj
 0002:000033d0       ??_C@_1M@CPKKEBLD@?$AAe?$AAs?$AA?9?$AAS?$AAV?$AA?$AA@ 100163d0     libucrt:lcidtoname_downlevel.obj
 0002:000033dc       ??_C@_1M@NDBGMMJL@?$AAe?$AAs?$AA?9?$AAH?$AAN?$AA?$AA@ 100163dc     libucrt:lcidtoname_downlevel.obj
 0002:000033e8       ??_C@_1M@JIJIBHDP@?$AAe?$AAs?$AA?9?$AAN?$AAI?$AA?$AA@ 100163e8     libucrt:lcidtoname_downlevel.obj
 0002:000033f4       ??_C@_1M@CGFMKEEK@?$AAe?$AAs?$AA?9?$AAP?$AAR?$AA?$AA@ 100163f4     libucrt:lcidtoname_downlevel.obj
 0002:00003400       ??_C@_1O@ICJHKIIK@?$AAz?$AAh?$AA?9?$AAC?$AAH?$AAT?$AA?$AA@ 10016400     libucrt:lcidtoname_downlevel.obj
 0002:00003410       ??_C@_15CLNEJCE@?$AAs?$AAr?$AA?$AA@ 10016410     libucrt:lcidtoname_downlevel.obj
 0002:00003b38       ??_C@_1M@KAHEKEIG@?$AAa?$AAf?$AA?9?$AAz?$AAa?$AA?$AA@ 10016b38     libucrt:lcidtoname_downlevel.obj
 0002:00003b44       ??_C@_1M@GIECOABL@?$AAa?$AAr?$AA?9?$AAa?$AAe?$AA?$AA@ 10016b44     libucrt:lcidtoname_downlevel.obj
 0002:00003b50       ??_C@_1M@BMLMEKGI@?$AAa?$AAr?$AA?9?$AAb?$AAh?$AA?$AA@ 10016b50     libucrt:lcidtoname_downlevel.obj
 0002:00003b5c       ??_C@_1M@DAPFDGGB@?$AAa?$AAr?$AA?9?$AAd?$AAz?$AA?$AA@ 10016b5c     libucrt:lcidtoname_downlevel.obj
 0002:00003b68       ??_C@_1M@FJNKGKIG@?$AAa?$AAr?$AA?9?$AAe?$AAg?$AA?$AA@ 10016b68     libucrt:lcidtoname_downlevel.obj
 0002:00003b74       ??_C@_1M@FLGKKCLO@?$AAa?$AAr?$AA?9?$AAi?$AAq?$AA?$AA@ 10016b74     libucrt:lcidtoname_downlevel.obj
 0002:00003b80       ??_C@_1M@GNDIPALM@?$AAa?$AAr?$AA?9?$AAj?$AAo?$AA?$AA@ 10016b80     libucrt:lcidtoname_downlevel.obj
 0002:00003b8c       ??_C@_1M@DDMJFMGJ@?$AAa?$AAr?$AA?9?$AAk?$AAw?$AA?$AA@ 10016b8c     libucrt:lcidtoname_downlevel.obj
 0002:00003b98       ??_C@_1M@EJALMLHM@?$AAa?$AAr?$AA?9?$AAl?$AAb?$AA?$AA@ 10016b98     libucrt:lcidtoname_downlevel.obj
 0002:00003ba4       ??_C@_1M@MOBDBLOC@?$AAa?$AAr?$AA?9?$AAl?$AAy?$AA?$AA@ 10016ba4     libucrt:lcidtoname_downlevel.obj
 0002:00003bb0       ??_C@_1M@JAOCLHDH@?$AAa?$AAr?$AA?9?$AAm?$AAa?$AA?$AA@ 10016bb0     libucrt:lcidtoname_downlevel.obj
 0002:00003bbc       ??_C@_1M@JHPMKJIE@?$AAa?$AAr?$AA?9?$AAo?$AAm?$AA?$AA@ 10016bbc     libucrt:lcidtoname_downlevel.obj
 0002:00003bc8       ??_C@_1M@OEPGHFNH@?$AAa?$AAr?$AA?9?$AAq?$AAa?$AA?$AA@ 10016bc8     libucrt:lcidtoname_downlevel.obj
 0002:00003bd4       ??_C@_1M@KJDONENM@?$AAa?$AAr?$AA?9?$AAs?$AAa?$AA?$AA@ 10016bd4     libucrt:lcidtoname_downlevel.obj
 0002:00003be0       ??_C@_1M@DMJDKLKM@?$AAa?$AAr?$AA?9?$AAs?$AAy?$AA?$AA@ 10016be0     libucrt:lcidtoname_downlevel.obj
 0002:00003bec       ??_C@_1M@OMFIPEDC@?$AAa?$AAr?$AA?9?$AAt?$AAn?$AA?$AA@ 10016bec     libucrt:lcidtoname_downlevel.obj
 0002:00003bf8       ??_C@_1M@IHMHGAON@?$AAa?$AAr?$AA?9?$AAy?$AAe?$AA?$AA@ 10016bf8     libucrt:lcidtoname_downlevel.obj
 0002:00003c04       ??_C@_1BG@KDCPGJGB@?$AAa?$AAz?$AA?9?$AAa?$AAz?$AA?9?$AAc?$AAy?$AAr?$AAl?$AA?$AA@ 10016c04     libucrt:lcidtoname_downlevel.obj
 0002:00003c1c       ??_C@_1BG@IBCKDDOE@?$AAa?$AAz?$AA?9?$AAa?$AAz?$AA?9?$AAl?$AAa?$AAt?$AAn?$AA?$AA@ 10016c1c     libucrt:lcidtoname_downlevel.obj
 0002:00003c34       ??_C@_1M@EGPFDCPD@?$AAb?$AAe?$AA?9?$AAb?$AAy?$AA?$AA@ 10016c34     libucrt:lcidtoname_downlevel.obj
 0002:00003c40       ??_C@_1M@PCMGMCGC@?$AAb?$AAg?$AA?9?$AAb?$AAg?$AA?$AA@ 10016c40     libucrt:lcidtoname_downlevel.obj
 0002:00003c4c       ??_C@_1M@BJBMFGOB@?$AAb?$AAn?$AA?9?$AAi?$AAn?$AA?$AA@ 10016c4c     libucrt:lcidtoname_downlevel.obj
 0002:00003c58       ??_C@_1BG@EAKMMACD@?$AAb?$AAs?$AA?9?$AAb?$AAa?$AA?9?$AAl?$AAa?$AAt?$AAn?$AA?$AA@ 10016c58     libucrt:lcidtoname_downlevel.obj
 0002:00003c70       ??_C@_1M@KGADAODK@?$AAc?$AAa?$AA?9?$AAe?$AAs?$AA?$AA@ 10016c70     libucrt:lcidtoname_downlevel.obj
 0002:00003c7c       ??_C@_1M@COAJPDHI@?$AAc?$AAs?$AA?9?$AAc?$AAz?$AA?$AA@ 10016c7c     libucrt:lcidtoname_downlevel.obj
 0002:00003c88       ??_C@_1M@DHBHFONH@?$AAc?$AAy?$AA?9?$AAg?$AAb?$AA?$AA@ 10016c88     libucrt:lcidtoname_downlevel.obj
 0002:00003c94       ??_C@_1M@IMGKELGA@?$AAd?$AAa?$AA?9?$AAd?$AAk?$AA?$AA@ 10016c94     libucrt:lcidtoname_downlevel.obj
 0002:00003ca0       ??_C@_1M@NNDGDNGA@?$AAd?$AAe?$AA?9?$AAa?$AAt?$AA?$AA@ 10016ca0     libucrt:lcidtoname_downlevel.obj
 0002:00003cac       ??_C@_1M@IKDBHEEM@?$AAd?$AAe?$AA?9?$AAc?$AAh?$AA?$AA@ 10016cac     libucrt:lcidtoname_downlevel.obj
 0002:00003cb8       ??_C@_1M@GFFOJMCJ@?$AAd?$AAe?$AA?9?$AAd?$AAe?$AA?$AA@ 10016cb8     libucrt:lcidtoname_downlevel.obj
 0002:00003cc4       ??_C@_1M@MDNLKBPM@?$AAd?$AAe?$AA?9?$AAl?$AAi?$AA?$AA@ 10016cc4     libucrt:lcidtoname_downlevel.obj
 0002:00003cd0       ??_C@_1M@NJBEEJNL@?$AAd?$AAe?$AA?9?$AAl?$AAu?$AA?$AA@ 10016cd0     libucrt:lcidtoname_downlevel.obj
 0002:00003cdc       ??_C@_1O@GNNELBAP@?$AAd?$AAi?$AAv?$AA?9?$AAm?$AAv?$AA?$AA@ 10016cdc     libucrt:lcidtoname_downlevel.obj
 0002:00003cec       ??_C@_1M@EJLEOGAE@?$AAe?$AAl?$AA?9?$AAg?$AAr?$AA?$AA@ 10016cec     libucrt:lcidtoname_downlevel.obj
 0002:00003cf8       ??_C@_1M@GMPONJN@?$AAe?$AAn?$AA?9?$AAa?$AAu?$AA?$AA@ 10016cf8     libucrt:lcidtoname_downlevel.obj
 0002:00003d04       ??_C@_1M@NIDIIPGF@?$AAe?$AAn?$AA?9?$AAb?$AAz?$AA?$AA@ 10016d04     libucrt:lcidtoname_downlevel.obj
 0002:00003d10       ??_C@_1M@JEHMIMFO@?$AAe?$AAn?$AA?9?$AAc?$AAa?$AA?$AA@ 10016d10     libucrt:lcidtoname_downlevel.obj
 0002:00003d1c       ??_C@_1M@IGMJCDLA@?$AAe?$AAn?$AA?9?$AAc?$AAb?$AA?$AA@ 10016d1c     libucrt:lcidtoname_downlevel.obj
 0002:00003d28       ??_C@_1M@BNFIGBKG@?$AAe?$AAn?$AA?9?$AAg?$AAb?$AA?$AA@ 10016d28     libucrt:lcidtoname_downlevel.obj
 0002:00003d34       ??_C@_1M@LKIFDIGP@?$AAe?$AAn?$AA?9?$AAi?$AAe?$AA?$AA@ 10016d34     libucrt:lcidtoname_downlevel.obj
 0002:00003d40       ??_C@_1M@PJKFGCCO@?$AAe?$AAn?$AA?9?$AAj?$AAm?$AA?$AA@ 10016d40     libucrt:lcidtoname_downlevel.obj
 0002:00003d4c       ??_C@_1M@KPPKEPBO@?$AAe?$AAn?$AA?9?$AAn?$AAz?$AA?$AA@ 10016d4c     libucrt:lcidtoname_downlevel.obj
 0002:00003d58       ??_C@_1M@GMDGLDOB@?$AAe?$AAn?$AA?9?$AAp?$AAh?$AA?$AA@ 10016d58     libucrt:lcidtoname_downlevel.obj
 0002:00003d64       ??_C@_1M@ONGIBJNA@?$AAe?$AAn?$AA?9?$AAt?$AAt?$AA?$AA@ 10016d64     libucrt:lcidtoname_downlevel.obj
 0002:00003d70       ??_C@_1M@LLODPCMM@?$AAe?$AAn?$AA?9?$AAu?$AAs?$AA?$AA@ 10016d70     libucrt:lcidtoname_downlevel.obj
 0002:00003d7c       ??_C@_1M@LAKFNPAN@?$AAe?$AAn?$AA?9?$AAz?$AAa?$AA?$AA@ 10016d7c     libucrt:lcidtoname_downlevel.obj
 0002:00003d88       ??_C@_1M@MFNHNHEO@?$AAe?$AAn?$AA?9?$AAz?$AAw?$AA?$AA@ 10016d88     libucrt:lcidtoname_downlevel.obj
 0002:00003d94       ??_C@_1M@EJEINPHM@?$AAe?$AAs?$AA?9?$AAa?$AAr?$AA?$AA@ 10016d94     libucrt:lcidtoname_downlevel.obj
 0002:00003da0       ??_C@_1M@GNKPCCJA@?$AAe?$AAs?$AA?9?$AAb?$AAo?$AA?$AA@ 10016da0     libucrt:lcidtoname_downlevel.obj
 0002:00003dac       ??_C@_1M@LEEGFONL@?$AAe?$AAs?$AA?9?$AAc?$AAl?$AA?$AA@ 10016dac     libucrt:lcidtoname_downlevel.obj
 0002:00003db8       ??_C@_1M@KGPDPBDF@?$AAe?$AAs?$AA?9?$AAc?$AAo?$AA?$AA@ 10016db8     libucrt:lcidtoname_downlevel.obj
 0002:00003dc4       ??_C@_1M@EIAHOHH@?$AAe?$AAs?$AA?9?$AAc?$AAr?$AA?$AA@ 10016dc4     libucrt:lcidtoname_downlevel.obj
 0002:00003dd0       ??_C@_1M@LLPGMBIN@?$AAe?$AAs?$AA?9?$AAd?$AAo?$AA?$AA@ 10016dd0     libucrt:lcidtoname_downlevel.obj
 0002:00003ddc       ??_C@_1M@DKHMKNJA@?$AAe?$AAs?$AA?9?$AAe?$AAc?$AA?$AA@ 10016ddc     libucrt:lcidtoname_downlevel.obj
 0002:00003de8       ??_C@_1M@GKGFPKAP@?$AAe?$AAs?$AA?9?$AAe?$AAs?$AA?$AA@ 10016de8     libucrt:lcidtoname_downlevel.obj
 0002:00003df4       ??_C@_1M@LKHKGDLN@?$AAe?$AAs?$AA?9?$AAg?$AAt?$AA?$AA@ 10016df4     libucrt:lcidtoname_downlevel.obj
 0002:00003e00       ??_C@_1M@HEIIGGJD@?$AAe?$AAs?$AA?9?$AAh?$AAn?$AA?$AA@ 10016e00     libucrt:lcidtoname_downlevel.obj
 0002:00003e0c       ??_C@_1M@FBDHPPGD@?$AAe?$AAs?$AA?9?$AAm?$AAx?$AA?$AA@ 10016e0c     libucrt:lcidtoname_downlevel.obj
 0002:00003e18       ??_C@_1M@DPAGLNDH@?$AAe?$AAs?$AA?9?$AAn?$AAi?$AA?$AA@ 10016e18     libucrt:lcidtoname_downlevel.obj
 0002:00003e24       ??_C@_1M@MDGOPGDD@?$AAe?$AAs?$AA?9?$AAp?$AAa?$AA?$AA@ 10016e24     libucrt:lcidtoname_downlevel.obj
 0002:00003e30       ??_C@_1M@EMAMGBGE@?$AAe?$AAs?$AA?9?$AAp?$AAe?$AA?$AA@ 10016e30     libucrt:lcidtoname_downlevel.obj
 0002:00003e3c       ??_C@_1M@IBMCAOEC@?$AAe?$AAs?$AA?9?$AAp?$AAr?$AA?$AA@ 10016e3c     libucrt:lcidtoname_downlevel.obj
 0002:00003e48       ??_C@_1M@FGMDIJED@?$AAe?$AAs?$AA?9?$AAp?$AAy?$AA?$AA@ 10016e48     libucrt:lcidtoname_downlevel.obj
 0002:00003e54       ??_C@_1M@IIDEOLLL@?$AAe?$AAs?$AA?9?$AAs?$AAv?$AA?$AA@ 10016e54     libucrt:lcidtoname_downlevel.obj
 0002:00003e60       ??_C@_1M@GAOBIPA@?$AAe?$AAs?$AA?9?$AAu?$AAy?$AA?$AA@ 10016e60     libucrt:lcidtoname_downlevel.obj
 0002:00003e6c       ??_C@_1M@JKFFICHJ@?$AAe?$AAs?$AA?9?$AAv?$AAe?$AA?$AA@ 10016e6c     libucrt:lcidtoname_downlevel.obj
 0002:00003e78       ??_C@_1M@PNMLOJDF@?$AAe?$AAt?$AA?9?$AAe?$AAe?$AA?$AA@ 10016e78     libucrt:lcidtoname_downlevel.obj
 0002:00003e84       ??_C@_1M@GHHLIKEI@?$AAe?$AAu?$AA?9?$AAe?$AAs?$AA?$AA@ 10016e84     libucrt:lcidtoname_downlevel.obj
 0002:00003e90       ??_C@_1M@PBNONODE@?$AAf?$AAa?$AA?9?$AAi?$AAr?$AA?$AA@ 10016e90     libucrt:lcidtoname_downlevel.obj
 0002:00003e9c       ??_C@_1M@JEEHPMIL@?$AAf?$AAi?$AA?9?$AAf?$AAi?$AA?$AA@ 10016e9c     libucrt:lcidtoname_downlevel.obj
 0002:00003ea8       ??_C@_1M@LMDCNDBA@?$AAf?$AAo?$AA?9?$AAf?$AAo?$AA?$AA@ 10016ea8     libucrt:lcidtoname_downlevel.obj
 0002:00003eb4       ??_C@_1M@JKEOHLDK@?$AAf?$AAr?$AA?9?$AAb?$AAe?$AA?$AA@ 10016eb4     libucrt:lcidtoname_downlevel.obj
 0002:00003ec0       ??_C@_1M@NOHADPMI@?$AAf?$AAr?$AA?9?$AAc?$AAa?$AA?$AA@ 10016ec0     libucrt:lcidtoname_downlevel.obj
 0002:00003ecc       ??_C@_1M@KDHIHAEC@?$AAf?$AAr?$AA?9?$AAc?$AAh?$AA?$AA@ 10016ecc     libucrt:lcidtoname_downlevel.obj
 0002:00003ed8       ??_C@_1M@MMBBFGAK@?$AAf?$AAr?$AA?9?$AAf?$AAr?$AA?$AA@ 10016ed8     libucrt:lcidtoname_downlevel.obj
 0002:00003ee4       ??_C@_1M@PAFNENNF@?$AAf?$AAr?$AA?9?$AAl?$AAu?$AA?$AA@ 10016ee4     libucrt:lcidtoname_downlevel.obj
 0002:00003ef0       ??_C@_1M@EOHDJGDD@?$AAf?$AAr?$AA?9?$AAm?$AAc?$AA?$AA@ 10016ef0     libucrt:lcidtoname_downlevel.obj
 0002:00003efc       ??_C@_1M@FAPLLOPF@?$AAg?$AAl?$AA?9?$AAe?$AAs?$AA?$AA@ 10016efc     libucrt:lcidtoname_downlevel.obj
 0002:00003f08       ??_C@_1M@FOPBFLOO@?$AAg?$AAu?$AA?9?$AAi?$AAn?$AA?$AA@ 10016f08     libucrt:lcidtoname_downlevel.obj
 0002:00003f14       ??_C@_1M@KBMCINPM@?$AAh?$AAe?$AA?9?$AAi?$AAl?$AA?$AA@ 10016f14     libucrt:lcidtoname_downlevel.obj
 0002:00003f20       ??_C@_1M@BBPHKFPJ@?$AAh?$AAi?$AA?9?$AAi?$AAn?$AA?$AA@ 10016f20     libucrt:lcidtoname_downlevel.obj
 0002:00003f2c       ??_C@_1M@PMBNDPHD@?$AAh?$AAr?$AA?9?$AAb?$AAa?$AA?$AA@ 10016f2c     libucrt:lcidtoname_downlevel.obj
 0002:00003f38       ??_C@_1M@BPCKOEGE@?$AAh?$AAr?$AA?9?$AAh?$AAr?$AA?$AA@ 10016f38     libucrt:lcidtoname_downlevel.obj
 0002:00003f44       ??_C@_1M@GACBMHKE@?$AAh?$AAu?$AA?9?$AAh?$AAu?$AA?$AA@ 10016f44     libucrt:lcidtoname_downlevel.obj
 0002:00003f50       ??_C@_1M@MILPAJJC@?$AAh?$AAy?$AA?9?$AAa?$AAm?$AA?$AA@ 10016f50     libucrt:lcidtoname_downlevel.obj
 0002:00003f5c       ??_C@_1M@BABBICEC@?$AAi?$AAd?$AA?9?$AAi?$AAd?$AA?$AA@ 10016f5c     libucrt:lcidtoname_downlevel.obj
 0002:00003f68       ??_C@_1M@BIKNHHPF@?$AAi?$AAs?$AA?9?$AAi?$AAs?$AA?$AA@ 10016f68     libucrt:lcidtoname_downlevel.obj
 0002:00003f74       ??_C@_1M@NMPCJPHE@?$AAi?$AAt?$AA?9?$AAc?$AAh?$AA?$AA@ 10016f74     libucrt:lcidtoname_downlevel.obj
 0002:00003f80       ??_C@_1M@GHKGFEDF@?$AAi?$AAt?$AA?9?$AAi?$AAt?$AA?$AA@ 10016f80     libucrt:lcidtoname_downlevel.obj
 0002:00003f8c       ??_C@_1M@NIEJCJJA@?$AAj?$AAa?$AA?9?$AAj?$AAp?$AA?$AA@ 10016f8c     libucrt:lcidtoname_downlevel.obj
 0002:00003f98       ??_C@_1M@JILFNBIM@?$AAk?$AAa?$AA?9?$AAg?$AAe?$AA?$AA@ 10016f98     libucrt:lcidtoname_downlevel.obj
 0002:00003fa4       ??_C@_1M@PACPMGPH@?$AAk?$AAk?$AA?9?$AAk?$AAz?$AA?$AA@ 10016fa4     libucrt:lcidtoname_downlevel.obj
 0002:00003fb0       ??_C@_1M@IELFGMHA@?$AAk?$AAn?$AA?9?$AAi?$AAn?$AA?$AA@ 10016fb0     libucrt:lcidtoname_downlevel.obj
 0002:00003fbc       ??_C@_1O@IBBJHCH@?$AAk?$AAo?$AAk?$AA?9?$AAi?$AAn?$AA?$AA@ 10016fbc     libucrt:lcidtoname_downlevel.obj
 0002:00003fcc       ??_C@_1M@DMHAEOGC@?$AAk?$AAo?$AA?9?$AAk?$AAr?$AA?$AA@ 10016fcc     libucrt:lcidtoname_downlevel.obj
 0002:00003fd8       ??_C@_1M@HBAHBIGA@?$AAk?$AAy?$AA?9?$AAk?$AAg?$AA?$AA@ 10016fd8     libucrt:lcidtoname_downlevel.obj
 0002:00003fe4       ??_C@_1M@KPMILCJG@?$AAl?$AAt?$AA?9?$AAl?$AAt?$AA?$AA@ 10016fe4     libucrt:lcidtoname_downlevel.obj
 0002:00003ff0       ??_C@_1M@BDEKKCA@?$AAl?$AAv?$AA?9?$AAl?$AAv?$AA?$AA@ 10016ff0     libucrt:lcidtoname_downlevel.obj
 0002:00003ffc       ??_C@_1M@ELCKCCJJ@?$AAm?$AAi?$AA?9?$AAn?$AAz?$AA?$AA@ 10016ffc     libucrt:lcidtoname_downlevel.obj
 0002:00004008       ??_C@_1M@CBOOLAPA@?$AAm?$AAk?$AA?9?$AAm?$AAk?$AA?$AA@ 10017008     libucrt:lcidtoname_downlevel.obj
 0002:00004014       ??_C@_1M@GPHNBJKN@?$AAm?$AAl?$AA?9?$AAi?$AAn?$AA?$AA@ 10017014     libucrt:lcidtoname_downlevel.obj
 0002:00004020       ??_C@_1M@PABJILIG@?$AAm?$AAn?$AA?9?$AAm?$AAn?$AA?$AA@ 10017020     libucrt:lcidtoname_downlevel.obj
 0002:0000402c       ??_C@_1M@FGBKKIPG@?$AAm?$AAr?$AA?9?$AAi?$AAn?$AA?$AA@ 1001702c     libucrt:lcidtoname_downlevel.obj
 0002:00004038       ??_C@_1M@NDBPDDAL@?$AAm?$AAs?$AA?9?$AAb?$AAn?$AA?$AA@ 10017038     libucrt:lcidtoname_downlevel.obj
 0002:00004044       ??_C@_1M@OPIHOOPI@?$AAm?$AAs?$AA?9?$AAm?$AAy?$AA?$AA@ 10017044     libucrt:lcidtoname_downlevel.obj
 0002:00004050       ??_C@_1M@PPDBCNFM@?$AAm?$AAt?$AA?9?$AAm?$AAt?$AA?$AA@ 10017050     libucrt:lcidtoname_downlevel.obj
 0002:0000405c       ??_C@_1M@KDJDKMDD@?$AAn?$AAb?$AA?9?$AAn?$AAo?$AA?$AA@ 1001705c     libucrt:lcidtoname_downlevel.obj
 0002:00004068       ??_C@_1M@KFCFLMJP@?$AAn?$AAl?$AA?9?$AAb?$AAe?$AA?$AA@ 10017068     libucrt:lcidtoname_downlevel.obj
 0002:00004074       ??_C@_1M@KPOPDDGO@?$AAn?$AAl?$AA?9?$AAn?$AAl?$AA?$AA@ 10017074     libucrt:lcidtoname_downlevel.obj
 0002:00004080       ??_C@_1M@LJKPEMLN@?$AAn?$AAn?$AA?9?$AAn?$AAo?$AA?$AA@ 10017080     libucrt:lcidtoname_downlevel.obj
 0002:0000408c       ??_C@_1M@BDGHHBFL@?$AAn?$AAs?$AA?9?$AAz?$AAa?$AA?$AA@ 1001708c     libucrt:lcidtoname_downlevel.obj
 0002:00004098       ??_C@_1M@IDEHOAP@?$AAp?$AAa?$AA?9?$AAi?$AAn?$AA?$AA@ 10017098     libucrt:lcidtoname_downlevel.obj
 0002:000040a4       ??_C@_1M@HDBKGOGH@?$AAp?$AAl?$AA?9?$AAp?$AAl?$AA?$AA@ 100170a4     libucrt:lcidtoname_downlevel.obj
 0002:000040b0       ??_C@_1M@LJLLCMEH@?$AAp?$AAt?$AA?9?$AAb?$AAr?$AA?$AA@ 100170b0     libucrt:lcidtoname_downlevel.obj
 0002:000040bc       ??_C@_1M@NCMONAAL@?$AAp?$AAt?$AA?9?$AAp?$AAt?$AA?$AA@ 100170bc     libucrt:lcidtoname_downlevel.obj
 0002:000040c8       ??_C@_1O@EAKMAJDN@?$AAq?$AAu?$AAz?$AA?9?$AAb?$AAo?$AA?$AA@ 100170c8     libucrt:lcidtoname_downlevel.obj
 0002:000040d8       ??_C@_1O@BHHPIGDN@?$AAq?$AAu?$AAz?$AA?9?$AAe?$AAc?$AA?$AA@ 100170d8     libucrt:lcidtoname_downlevel.obj
 0002:000040e8       ??_C@_1O@GBAPEKMJ@?$AAq?$AAu?$AAz?$AA?9?$AAp?$AAe?$AA?$AA@ 100170e8     libucrt:lcidtoname_downlevel.obj
 0002:000040f8       ??_C@_1M@CLGLEFBO@?$AAr?$AAo?$AA?9?$AAr?$AAo?$AA?$AA@ 100170f8     libucrt:lcidtoname_downlevel.obj
 0002:00004104       ??_C@_1M@CEEDODME@?$AAr?$AAu?$AA?9?$AAr?$AAu?$AA?$AA@ 10017104     libucrt:lcidtoname_downlevel.obj
 0002:00004110       ??_C@_1M@HPKKKMPP@?$AAs?$AAa?$AA?9?$AAi?$AAn?$AA?$AA@ 10017110     libucrt:lcidtoname_downlevel.obj
 0002:0000411c       ??_C@_1M@BKMAIGOJ@?$AAs?$AAe?$AA?9?$AAf?$AAi?$AA?$AA@ 1001711c     libucrt:lcidtoname_downlevel.obj
 0002:00004128       ??_C@_1M@NDPIFLFI@?$AAs?$AAe?$AA?9?$AAn?$AAo?$AA?$AA@ 10017128     libucrt:lcidtoname_downlevel.obj
 0002:00004134       ??_C@_1M@DANKKHJ@?$AAs?$AAe?$AA?9?$AAs?$AAe?$AA?$AA@ 10017134     libucrt:lcidtoname_downlevel.obj
 0002:00004140       ??_C@_1M@PNBLONPJ@?$AAs?$AAk?$AA?9?$AAs?$AAk?$AA?$AA@ 10017140     libucrt:lcidtoname_downlevel.obj
 0002:0000414c       ??_C@_1M@LFMODOAL@?$AAs?$AAl?$AA?9?$AAs?$AAi?$AA?$AA@ 1001714c     libucrt:lcidtoname_downlevel.obj
 0002:00004158       ??_C@_1O@DFKOMPG@?$AAs?$AAm?$AAa?$AA?9?$AAn?$AAo?$AA?$AA@ 10017158     libucrt:lcidtoname_downlevel.obj
 0002:00004168       ??_C@_1O@NDKPBNNH@?$AAs?$AAm?$AAa?$AA?9?$AAs?$AAe?$AA?$AA@ 10017168     libucrt:lcidtoname_downlevel.obj
 0002:00004178       ??_C@_1O@PLLKBHAB@?$AAs?$AAm?$AAj?$AA?9?$AAn?$AAo?$AA?$AA@ 10017178     libucrt:lcidtoname_downlevel.obj
 0002:00004188       ??_C@_1O@CLEPOGCA@?$AAs?$AAm?$AAj?$AA?9?$AAs?$AAe?$AA?$AA@ 10017188     libucrt:lcidtoname_downlevel.obj
 0002:00004198       ??_C@_1O@DLGJGKMK@?$AAs?$AAm?$AAn?$AA?9?$AAf?$AAi?$AA?$AA@ 10017198     libucrt:lcidtoname_downlevel.obj
 0002:000041a8       ??_C@_1O@OJDJGAJC@?$AAs?$AAm?$AAs?$AA?9?$AAf?$AAi?$AA?$AA@ 100171a8     libucrt:lcidtoname_downlevel.obj
 0002:000041b8       ??_C@_1M@BOFOGHPB@?$AAs?$AAq?$AA?9?$AAa?$AAl?$AA?$AA@ 100171b8     libucrt:lcidtoname_downlevel.obj
 0002:000041c4       ??_C@_1BG@LJBBIPGB@?$AAs?$AAr?$AA?9?$AAb?$AAa?$AA?9?$AAc?$AAy?$AAr?$AAl?$AA?$AA@ 100171c4     libucrt:lcidtoname_downlevel.obj
 0002:000041dc       ??_C@_1BG@JLBENFOE@?$AAs?$AAr?$AA?9?$AAb?$AAa?$AA?9?$AAl?$AAa?$AAt?$AAn?$AA?$AA@ 100171dc     libucrt:lcidtoname_downlevel.obj
 0002:000041f4       ??_C@_1BG@KODPNHE@?$AAs?$AAr?$AA?9?$AAs?$AAp?$AA?9?$AAc?$AAy?$AAr?$AAl?$AA?$AA@ 100171f4     libucrt:lcidtoname_downlevel.obj
 0002:0000420c       ??_C@_1BG@CIOGKHPB@?$AAs?$AAr?$AA?9?$AAs?$AAp?$AA?9?$AAl?$AAa?$AAt?$AAn?$AA?$AA@ 1001720c     libucrt:lcidtoname_downlevel.obj
 0002:00004224       ??_C@_1M@NGFJLMAC@?$AAs?$AAv?$AA?9?$AAf?$AAi?$AA?$AA@ 10017224     libucrt:lcidtoname_downlevel.obj
 0002:00004230       ??_C@_1M@MPJEJAJC@?$AAs?$AAv?$AA?9?$AAs?$AAe?$AA?$AA@ 10017230     libucrt:lcidtoname_downlevel.obj
 0002:0000423c       ??_C@_1M@MPNDHLFK@?$AAs?$AAw?$AA?9?$AAk?$AAe?$AA?$AA@ 1001723c     libucrt:lcidtoname_downlevel.obj
 0002:00004248       ??_C@_1O@KOHBJJI@?$AAs?$AAy?$AAr?$AA?9?$AAs?$AAy?$AA?$AA@ 10017248     libucrt:lcidtoname_downlevel.obj
 0002:00004258       ??_C@_1M@LDCEFHA@?$AAt?$AAa?$AA?9?$AAi?$AAn?$AA?$AA@ 10017258     libucrt:lcidtoname_downlevel.obj
 0002:00004264       ??_C@_1M@CNJOFAK@?$AAt?$AAe?$AA?9?$AAi?$AAn?$AA?$AA@ 10017264     libucrt:lcidtoname_downlevel.obj
 0002:00004270       ??_C@_1M@GNAECACD@?$AAt?$AAh?$AA?9?$AAt?$AAh?$AA?$AA@ 10017270     libucrt:lcidtoname_downlevel.obj
 0002:0000427c       ??_C@_1M@CHBIHOJO@?$AAt?$AAn?$AA?9?$AAz?$AAa?$AA?$AA@ 1001727c     libucrt:lcidtoname_downlevel.obj
 0002:00004288       ??_C@_1M@GCCMIGPJ@?$AAt?$AAr?$AA?9?$AAt?$AAr?$AA?$AA@ 10017288     libucrt:lcidtoname_downlevel.obj
 0002:00004294       ??_C@_1M@CELMCNBK@?$AAt?$AAt?$AA?9?$AAr?$AAu?$AA?$AA@ 10017294     libucrt:lcidtoname_downlevel.obj
 0002:000042a0       ??_C@_1M@KLMCELGA@?$AAu?$AAk?$AA?9?$AAu?$AAa?$AA?$AA@ 100172a0     libucrt:lcidtoname_downlevel.obj
 0002:000042ac       ??_C@_1M@EPAJJAJF@?$AAu?$AAr?$AA?9?$AAp?$AAk?$AA?$AA@ 100172ac     libucrt:lcidtoname_downlevel.obj
 0002:000042b8       ??_C@_1BG@GEGPMCDJ@?$AAu?$AAz?$AA?9?$AAu?$AAz?$AA?9?$AAc?$AAy?$AAr?$AAl?$AA?$AA@ 100172b8     libucrt:lcidtoname_downlevel.obj
 0002:000042d0       ??_C@_1BG@EGGKJILM@?$AAu?$AAz?$AA?9?$AAu?$AAz?$AA?9?$AAl?$AAa?$AAt?$AAn?$AA?$AA@ 100172d0     libucrt:lcidtoname_downlevel.obj
 0002:000042e8       ??_C@_1M@GFOCLFF@?$AAv?$AAi?$AA?9?$AAv?$AAn?$AA?$AA@ 100172e8     libucrt:lcidtoname_downlevel.obj
 0002:000042f4       ??_C@_1M@CPAMEDFI@?$AAx?$AAh?$AA?9?$AAz?$AAa?$AA?$AA@ 100172f4     libucrt:lcidtoname_downlevel.obj
 0002:00004300       ??_C@_1O@EBKIFIGN@?$AAz?$AAh?$AA?9?$AAc?$AAh?$AAs?$AA?$AA@ 10017300     libucrt:lcidtoname_downlevel.obj
 0002:00004310       ??_C@_1O@NMHPGANE@?$AAz?$AAh?$AA?9?$AAc?$AAh?$AAt?$AA?$AA@ 10017310     libucrt:lcidtoname_downlevel.obj
 0002:00004320       ??_C@_1M@LPINJOMC@?$AAz?$AAh?$AA?9?$AAc?$AAn?$AA?$AA@ 10017320     libucrt:lcidtoname_downlevel.obj
 0002:0000432c       ??_C@_1M@OCJEJODD@?$AAz?$AAh?$AA?9?$AAh?$AAk?$AA?$AA@ 1001732c     libucrt:lcidtoname_downlevel.obj
 0002:00004338       ??_C@_1M@DNDLJINH@?$AAz?$AAh?$AA?9?$AAm?$AAo?$AA?$AA@ 10017338     libucrt:lcidtoname_downlevel.obj
 0002:00004344       ??_C@_1M@MBFDNDND@?$AAz?$AAh?$AA?9?$AAs?$AAg?$AA?$AA@ 10017344     libucrt:lcidtoname_downlevel.obj
 0002:00004350       ??_C@_1M@IMEPLEPE@?$AAz?$AAh?$AA?9?$AAt?$AAw?$AA?$AA@ 10017350     libucrt:lcidtoname_downlevel.obj
 0002:0000435c       ??_C@_1M@BBGHNHJP@?$AAz?$AAu?$AA?9?$AAz?$AAa?$AA?$AA@ 1001735c     libucrt:lcidtoname_downlevel.obj
 0002:00004368       ?large_power_data@?1??multiply_by_power_of_ten@__crt_strtox@@YA_NAAUbig_integer@2@I@Z@4QBIB 10017368     libucrt:cfout.obj
 0002:00004c70       ?large_power_indices@?1??multiply_by_power_of_ten@__crt_strtox@@YA_NAAUbig_integer@2@I@Z@4QBUunpack_index@?1??12@YA_N0I@Z@B 10017c70     libucrt:cfout.obj
 0002:00004d08       ?small_powers_of_ten@?6??multiply_by_power_of_ten@__crt_strtox@@YA_NAAUbig_integer@2@I@Z@4QBIB 10017d08     libucrt:cfout.obj
 0002:00004d2c       ??_C@_01GBGANLPD@0?$AA@    10017d2c     libucrt:cfout.obj
 0002:00004d30       ??_C@_05DNEBIAHO@1?$CDINF?$AA@ 10017d30     libucrt:cfout.obj
 0002:00004d38       ??_C@_06IMKFLFPG@1?$CDQNAN?$AA@ 10017d38     libucrt:cfout.obj
 0002:00004d40       ??_C@_06PGGFOGJG@1?$CDSNAN?$AA@ 10017d40     libucrt:cfout.obj
 0002:00004d48       ??_C@_05PHHOCPM@1?$CDIND?$AA@ 10017d48     libucrt:cfout.obj
 0002:00004da8       ??_C@_1BA@BALFACEM@?$AAC?$AAO?$AAN?$AAO?$AAU?$AAT?$AA$?$AA?$AA@ 10017da8     libucrt:initcon.obj
 0002:00004ec0       __infinity                 10017ec0     libucrt:87tran.obj
 0002:00004eca       __minfinity                10017eca     libucrt:87tran.obj
 0002:00004ed4       __logemax                  10017ed4     libucrt:87tran.obj
 0002:00004efa       __OP_EXPjmptab             10017efa     libucrt:87tran.obj
 0002:00004f20       __indefinite               10017f20     libucrt:87disp.obj
 0002:00004f2a       __piby2                    10017f2a     libucrt:87disp.obj
 0002:00004f34       __piby4                    10017f34     libucrt:87disp.obj
 0002:00004f68       __DEFAULT_CW_in_mem        10017f68     libucrt:common.obj
 0002:00004f6a       __pi_by_2_to_61            10017f6a     libucrt:common.obj
 0002:00004fa4       ??_C@_03MGHMBJCF@log?$AA@  10017fa4     libucrt:libm_error.obj
 0002:00004fa8       ??_C@_05HGHHAHAP@log10?$AA@ 10017fa8     libucrt:libm_error.obj
 0002:00004fb0       ??_C@_03KHJOGHMM@exp?$AA@  10017fb0     libucrt:libm_error.obj
 0002:00004fb4       ??_C@_03JGHBODFD@pow?$AA@  10017fb4     libucrt:libm_error.obj
 0002:00004fb8       ??_C@_04FIHNOPOL@asin?$AA@ 10017fb8     libucrt:libm_error.obj
 0002:00004fc0       ??_C@_04PDIFKINK@acos?$AA@ 10017fc0     libucrt:libm_error.obj
 0002:00004fc8       ??_C@_04EIAKFFMI@sqrt?$AA@ 10017fc8     libucrt:libm_error.obj
 0002:00004fd0       __real@3ff0000000000000    10017fd0     libucrt:libm_error.obj
 0002:00004ff0       ___acrt_log10_table_t      10017ff0     libucrt:log10_tables.obj
 0002:00005400       ___acrt_log10_table_cb     10018400     libucrt:log10_tables.obj
 0002:00005810       __real@3fe0000000000000    10018810     libucrt:powhlp.obj
 0002:00005818       ??_C@_04FJHINJAO@tanh?$AA@ 10018818     libucrt:fpexcept.obj
 0002:00005820       ??_C@_04MLLJIGOK@atan?$AA@ 10018820     libucrt:fpexcept.obj
 0002:00005828       ??_C@_05KNGEOGJB@atan2?$AA@ 10018828     libucrt:fpexcept.obj
 0002:00005830       ??_C@_03BLEJJJBH@sin?$AA@  10018830     libucrt:fpexcept.obj
 0002:00005834       ??_C@_03LALBNOCG@cos?$AA@  10018834     libucrt:fpexcept.obj
 0002:00005838       ??_C@_03IIINPABG@tan?$AA@  10018838     libucrt:fpexcept.obj
 0002:0000583c       ??_C@_04GFPJNGEK@ceil?$AA@ 1001883c     libucrt:fpexcept.obj
 0002:00005844       ??_C@_05PBJFFIGL@floor?$AA@ 10018844     libucrt:fpexcept.obj
 0002:0000584c       ??_C@_04ODHECPBC@fabs?$AA@ 1001884c     libucrt:fpexcept.obj
 0002:00005854       ??_C@_04EHEDPDJG@modf?$AA@ 10018854     libucrt:fpexcept.obj
 0002:0000585c       ??_C@_05CEJMAHNP@ldexp?$AA@ 1001885c     libucrt:fpexcept.obj
 0002:00005864       ??_C@_05KBKMEMPO@_cabs?$AA@ 10018864     libucrt:fpexcept.obj
 0002:0000586c       ??_C@_06MEIMCGCF@_hypot?$AA@ 1001886c     libucrt:fpexcept.obj
 0002:00005874       ??_C@_04KEPJIHGP@fmod?$AA@ 10018874     libucrt:fpexcept.obj
 0002:0000587c       ??_C@_05GKKHEGJL@frexp?$AA@ 1001887c     libucrt:fpexcept.obj
 0002:00005884       ??_C@_03MJLDFKDL@_y0?$AA@  10018884     libucrt:fpexcept.obj
 0002:00005888       ??_C@_03NAKIGLHK@_y1?$AA@  10018888     libucrt:fpexcept.obj
 0002:0000588c       ??_C@_03ONILCKOB@_yn?$AA@  1001888c     libucrt:fpexcept.obj
 0002:00005890       ??_C@_05JGDBENOH@_logb?$AA@ 10018890     libucrt:fpexcept.obj
 0002:00005898       ??_C@_0L@KDOEJCKC@_nextafter?$AA@ 10018898     libucrt:fpexcept.obj
 0002:00005990       ??_C@_04COOMCNPB@sinh?$AA@ 10018990     libucrt:fpexcept.obj
 0002:00005998       ??_C@_04HPJJNFIM@cosh?$AA@ 10018998     libucrt:fpexcept.obj
 0002:000059a0       __d_inf                    100189a0     libucrt:util.obj
 0002:000059a8       __d_max                    100189a8     libucrt:util.obj
 0002:000059b0       __d_mzero                  100189b0     libucrt:util.obj
 0002:000059b8       ??_C@_1BK@DBDEIDLH@?$AAK?$AAE?$AAR?$AAN?$AAE?$AAL?$AA3?$AA2?$AA?4?$AAD?$AAL?$AAL?$AA?$AA@ 100189b8     DelayImp:delayhlp.obj
 0002:000059d4       ??_C@_0BI@OMNLIJDB@AcquireSRWLockExclusive?$AA@ 100189d4     DelayImp:delayhlp.obj
 0002:000059ec       ??_C@_0BI@HMIEPCNJ@ReleaseSRWLockExclusive?$AA@ 100189ec     DelayImp:delayhlp.obj
 0002:00005a04       ___pfnDliFailureHook2      10018a04     DelayImp:delayhk1.obj
 0002:00005a08       __load_config_used         10018a08     LIBCMT:loadcfg.obj
 0002:00005a68       ??_C@_1LE@IKCICHN@?$AAC?$AA?3?$AA?2?$AAU?$AAs?$AAe?$AAr?$AAs?$AA?2?$AAH?$AAP?$AA?2?$AAw?$AAo?$AAr?$AAk?$AAs?$AAh?$AAo?$AAp?$AA?2?$AAi?$AAo?$AAn?$AAi?$AAc?$AAA?$AAp?$AAp?$AA?2?$AAm?$AAe@ 10018a68     rsa_keygen.obj
 0002:00005b20       ??_C@_1FM@LOELJOFK@?$AAs?$AAi?$AAz?$AAe?$AA?5?$AA?$DM?$AA?$DN?$AA?5?$AAi?$AAm?$AAp?$AA?3?$AA?3?$AAk?$AAM?$AAa?$AAx?$AAL?$AAe?$AAn?$AAg?$AAt?$AAh?$AA?5?$AA?$CG?$AA?$CG?$AA?5?$AA?$CC?$AAt?$AAo?$AAo?$AA?5@ 10018b20     rsa_keygen.obj
 0002:00005b7c       ??_C@_0CM@HBDGLMON@Expected?5modulus?5bit?5count?5bigge@ 10018b7c     rsa_keygen.obj
 0002:00005ba8       ??_C@_0BM@LCKPNPNK@Expected?5positive?5exponent?4?$AA@ 10018ba8     rsa_keygen.obj
 0002:00005bc4       ??_C@_0BH@HBICJKNM@Expected?5odd?5exponent?4?$AA@ 10018bc4     rsa_keygen.obj
 0002:00005bdc       ??_C@_0BN@BHOINPC@Failed?5creating?5RSA?5context?4?$AA@ 10018bdc     rsa_keygen.obj
 0002:00005bfc       ??_C@_0CE@EOBCJBIJ@Failed?5to?5allocate?5OpenSSL?5buffe@ 10018bfc     rsa_keygen.obj
 0002:00005c20       ??_C@_0BN@EJKOGNH@Failed?5exporting?5public?5key?4?$AA@ 10018c20     rsa_keygen.obj
 0002:00005c40       ??_C@_0BO@GIHPPHP@Failed?5exporting?5private?5key?4?$AA@ 10018c40     rsa_keygen.obj
 0002:00005c60       ??_C@_0L@PJCANJEE@public_key?$AA@ 10018c60     rsa_keygen.obj
 0002:00005c6c       ??_C@_0M@BCLPOPCL@private_key?$AA@ 10018c6c     rsa_keygen.obj
 0002:00005c78       ??_C@_08HBLFHMBF@generate?$AA@ 10018c78     rsa_keygen.obj
 0002:00005c84       ??_C@_0BF@KDBMMDEG@?4?4?2src?2rsa_keygen?4cc?$AA@ 10018c84     rsa_keygen.obj
 0002:00005c9c       ??_C@_0L@NOIPGLCH@rsa_keygen?$AA@ 10018c9c     rsa_keygen.obj
 0002:00005ca8       ??_C@_08HCOMDCCD@iojs?4exe?$AA@ 10018ca8     win_delay_load_hook.obj
 0002:00005cb4       ??_C@_08JDDNMFDB@node?4exe?$AA@ 10018cb4     win_delay_load_hook.obj
 0002:00005cc0       ___pfnDliNotifyHook2       10018cc0     win_delay_load_hook.obj
 0002:00005d30       ___safe_se_handler_table   10018d30     <linker-defined>
 0002:000060e0       ___rtc_iaa                 100190e0     LIBCMT:_initsect_.obj
 0002:000060e4       ___rtc_izz                 100190e4     LIBCMT:_initsect_.obj
 0002:000060e8       ___rtc_taa                 100190e8     LIBCMT:_initsect_.obj
 0002:000060ec       ___rtc_tzz                 100190ec     LIBCMT:_initsect_.obj
 0002:000064fc       __DELAY_IMPORT_DESCRIPTOR_node_exe 100194fc     node:node.exe
 0002:0000651c       __NULL_DELAY_IMPORT_DESCRIPTOR 1001951c     node:node.exe
 0002:000065e0       \177node_NULL_THUNK_DATA_DLN 100195e0     node:node.exe
 0002:00006e3c       \177node_NULL_THUNK_DATA_DLB 10019e3c     node:node.exe
 0002:00006f38       __IMPORT_DESCRIPTOR_KERNEL32 10019f38     kernel32:KERNEL32.dll
 0002:00006f4c       __NULL_IMPORT_DESCRIPTOR   10019f4c     kernel32:KERNEL32.dll
 0003:00000000       ___security_cookie_complement 1001b000     LIBCMT:gs_cookie.obj
 0003:00000004       ___security_cookie         1001b004     LIBCMT:gs_cookie.obj
 0003:00000008       ___scrt_native_dllmain_reason 1001b008     LIBCMT:utility.obj
 0003:00000010       ___isa_enabled             1001b010     LIBCMT:_cpu_disp_.obj
 0003:00000030       __NLG_Destination          1001b030     libvcruntime:_exsup_.obj
 0003:00000040       ___abort_behavior          1001b040     libucrt:abort.obj
 0003:00000050       __iob                      1001b050     libucrt:_file.obj
 0003:00000100       ___acrt_initial_locale_data 1001b100     libucrt:nlsdata.obj
 0003:000001b8       ___acrt_initial_locale_pointers 1001b1b8     libucrt:nlsdata.obj
 0003:000001c0       ___acrt_wide_c_locale_string 1001b1c0     libucrt:nlsdata.obj
 0003:000002b8       __mbctype                  1001b2b8     libucrt:mbctype.obj
 0003:000003c0       __mbcasemap                1001b3c0     libucrt:mbctype.obj
 0003:000004c0       ___acrt_initial_multibyte_data 1001b4c0     libucrt:mbctype.obj
 0003:000006e0       ___acrt_current_multibyte_data 1001b6e0     libucrt:mbctype.obj
 0003:000006e8       ___badioinfo               1001b6e8     libucrt:ioinit.obj
 0003:00000718       __pwctype                  1001b718     libucrt:ctype.obj
 0003:0000071c       ___globallocalestatus      1001b71c     libucrt:glstatus.obj
 0003:00000720       ___acrt_lconv_static_decimal 1001b720     libucrt:localeconv.obj
 0003:00000724       ___acrt_lconv_static_W_decimal 1001b724     libucrt:localeconv.obj
 0003:00000728       ___acrt_lconv_c            1001b728     libucrt:localeconv.obj
 0003:00000780       ___dcrt_lowio_console_output_handle 1001b780     libucrt:initcon.obj
 0003:00000790       __fltused                  1001b790     LIBCMT:fltused.obj
 0003:000007c4       __imp_?Value@External@v8@@QBEPAXXZ 1001b7c4     node:node.exe
 0003:000007c8       __imp_?New@External@v8@@SA?AV?$Local@VExternal@v8@@@2@PAVIsolate@2@PAX@Z 1001b7c8     node:node.exe
 0003:000007cc       __imp_?ThrowException@Isolate@v8@@QAE?AV?$Local@VValue@v8@@@2@V32@@Z 1001b7cc     node:node.exe
 0003:000007d0       __imp_?GetCurrentContext@Isolate@v8@@QAE?AV?$Local@VContext@v8@@@2@XZ 1001b7d0     node:node.exe
 0003:000007d4       __imp_?GetCurrent@Isolate@v8@@SAPAV12@XZ 1001b7d4     node:node.exe
 0003:000007d8       __imp_?CreateHandle@HandleScope@v8@@KAPAPAVObject@internal@2@PAVIsolate@42@PAV342@@Z 1001b7d8     node:node.exe
 0003:000007dc       __imp_?CreateHandle@HandleScope@v8@@CAPAPAVObject@internal@2@PAVHeapObject@42@PAV342@@Z 1001b7dc     node:node.exe
 0003:000007e0       __imp_??1HandleScope@v8@@QAE@XZ 1001b7e0     node:node.exe
 0003:000007e4       __imp_??0HandleScope@v8@@QAE@PAVIsolate@1@@Z 1001b7e4     node:node.exe
 0003:000007e8       __imp_?Error@Exception@v8@@SA?AV?$Local@VValue@v8@@@2@V?$Local@VString@v8@@@2@@Z 1001b7e8     node:node.exe
 0003:000007ec       __imp_?TypeError@Exception@v8@@SA?AV?$Local@VValue@v8@@@2@V?$Local@VString@v8@@@2@@Z 1001b7ec     node:node.exe
 0003:000007f0       __imp_?GetFunction@FunctionTemplate@v8@@QAE?AV?$MaybeLocal@VFunction@v8@@@2@V?$Local@VContext@v8@@@2@@Z 1001b7f0     node:node.exe
 0003:000007f4       __imp_?New@FunctionTemplate@v8@@SA?AV?$Local@VFunctionTemplate@v8@@@2@PAVIsolate@2@P6AXABV?$FunctionCallbackInfo@VValue@v8@@@2@@ZV?$Local@VValue@v8@@@2@V?$Local@VSignature@v8@@@2@H@Z 1001b7f4     node:node.exe
 0003:000007f8       __imp_?ToLocalEmpty@V8@v8@@CAXXZ 1001b7f8     node:node.exe
 0003:000007fc       __imp_?IsInt32@Value@v8@@QBE_NXZ 1001b7fc     node:node.exe
 0003:00000800       __imp_?Escape@EscapableHandleScope@v8@@AAEPAPAVObject@internal@2@PAPAV342@@Z 1001b800     node:node.exe
 0003:00000804       __imp_??0EscapableHandleScope@v8@@QAE@PAVIsolate@1@@Z 1001b804     node:node.exe
 0003:00000808       __imp_?NewFromUtf8@String@v8@@SA?AV?$MaybeLocal@VString@v8@@@2@PAVIsolate@2@PBDW4NewStringType@2@H@Z 1001b808     node:node.exe
 0003:0000080c       __imp_?Value@Int32@v8@@QBEHXZ 1001b80c     node:node.exe
 0003:00000810       __imp_?SlowGetInternalField@Object@v8@@AAE?AV?$Local@VValue@v8@@@2@H@Z 1001b810     node:node.exe
 0003:00000814       __imp_?New@Object@v8@@SA?AV?$Local@VObject@v8@@@2@PAVIsolate@2@@Z 1001b814     node:node.exe
 0003:00000818       __imp_?SetInternalField@Object@v8@@QAEXHV?$Local@VValue@v8@@@2@@Z 1001b818     node:node.exe
 0003:0000081c       __imp_?Set@Object@v8@@QAE?AV?$Maybe@_N@2@V?$Local@VContext@v8@@@2@V?$Local@VValue@v8@@@2@1@Z 1001b81c     node:node.exe
 0003:00000820       __imp_?SetInternalFieldCount@ObjectTemplate@v8@@QAEXH@Z 1001b820     node:node.exe
 0003:00000824       __imp_?NewInstance@ObjectTemplate@v8@@QAE?AV?$MaybeLocal@VObject@v8@@@2@V?$Local@VContext@v8@@@2@@Z 1001b824     node:node.exe
 0003:00000828       __imp_?New@ObjectTemplate@v8@@SA?AV?$Local@VObjectTemplate@v8@@@2@PAVIsolate@2@V?$Local@VFunctionTemplate@v8@@@2@@Z 1001b828     node:node.exe
 0003:0000082c       __imp__BIO_vfree           1001b82c     node:node.exe
 0003:00000830       __imp__PEM_write_bio_RSAPrivateKey 1001b830     node:node.exe
 0003:00000834       __imp__node_module_register 1001b834     node:node.exe
 0003:00000838       __imp_?Copy@Buffer@node@@YA?AV?$MaybeLocal@VObject@v8@@@v8@@PAVIsolate@4@PBDI@Z 1001b838     node:node.exe
 0003:0000083c       __imp__BN_new              1001b83c     node:node.exe
 0003:00000840       __imp__BIO_s_mem           1001b840     node:node.exe
 0003:00000844       __imp__BN_set_word         1001b844     node:node.exe
 0003:00000848       __imp__BN_free             1001b848     node:node.exe
 0003:0000084c       __imp__PEM_write_bio_RSA_PUBKEY 1001b84c     node:node.exe
 0003:00000850       __imp__RSA_free            1001b850     node:node.exe
 0003:00000854       __imp__RSA_new             1001b854     node:node.exe
 0003:00000858       __imp__BIO_ctrl            1001b858     node:node.exe
 0003:0000085c       __imp__BIO_new             1001b85c     node:node.exe
 0003:00000860       __imp__RSA_generate_key_ex 1001b860     node:node.exe
 0003:00000864       __imp_?ToInt32@Value@v8@@QBE?AV?$Local@VInt32@v8@@@2@XZ 1001b864     node:node.exe
 0003:00000868       \177node_NULL_THUNK_DATA_DLA 1001b868     node:node.exe
 0003:00000870       __hmod__node_exe           1001b870     node:node.exe
 0003:00000b94       ___scrt_current_native_startup_state 1001bb94     LIBCMT:utility.obj
 0003:00000b98       ___scrt_native_startup_lock 1001bb98     LIBCMT:utility.obj
 0003:00000bb8       ?__type_info_root_node@@3U__type_info_node@@A 1001bbb8     LIBCMT:tncleanup.obj
 0003:00000bc0       ?_OptionsStorage@?1??__local_stdio_printf_options@@9@4_KA 1001bbc0     LIBCMT:default_local_stdio_options.obj
 0003:00000bc8       ?_OptionsStorage@?1??__local_stdio_scanf_options@@9@4_KA 1001bbc8     LIBCMT:default_local_stdio_options.obj
 0003:00000bd0       ___scrt_debugger_hook_flag 1001bbd0     LIBCMT:utility_desktop.obj
 0003:00000bd4       ___isa_available           1001bbd4     LIBCMT:_cpu_disp_.obj
 0003:00000bd8       ___favor                   1001bbd8     LIBCMT:_cpu_disp_.obj
 0003:00000c54       ___pPurecall               1001bc54     libvcruntime:purevirt_data.obj
 0003:00000c58       ?pArgList@UnDecorator@@0PAVReplicator@@A 1001bc58     libvcruntime:undname.obj
 0003:00000c5c       ?pZNameList@UnDecorator@@0PAVReplicator@@A 1001bc5c     libvcruntime:undname.obj
 0003:00000c60       ?pTemplateArgList@UnDecorator@@0PAVReplicator@@A 1001bc60     libvcruntime:undname.obj
 0003:00000c64       ?gName@UnDecorator@@0PBDB  1001bc64     libvcruntime:undname.obj
 0003:00000c68       ?name@UnDecorator@@0PBDB   1001bc68     libvcruntime:undname.obj
 0003:00000c6c       ?outputString@UnDecorator@@0PADA 1001bc6c     libvcruntime:undname.obj
 0003:00000c70       ?maxStringLength@UnDecorator@@0HA 1001bc70     libvcruntime:undname.obj
 0003:00000c74       ?disableFlags@UnDecorator@@0KA 1001bc74     libvcruntime:undname.obj
 0003:00000c78       ?fExplicitTemplateParams@UnDecorator@@0_NA 1001bc78     libvcruntime:undname.obj
 0003:00000c79       ?fGetTemplateArgumentList@UnDecorator@@0_NA 1001bc79     libvcruntime:undname.obj
 0003:00000c7c       ?m_pGetParameter@UnDecorator@@0P6APADJ@ZA 1001bc7c     libvcruntime:undname.obj
 0003:00000da8       __environ_table            1001bda8     libucrt:environment_initialization.obj
 0003:00000dac       __wenviron_table           1001bdac     libucrt:environment_initialization.obj
 0003:00000db0       ___dcrt_initial_wide_environment 1001bdb0     libucrt:environment_initialization.obj
 0003:00000db4       ___dcrt_initial_narrow_environment 1001bdb4     libucrt:environment_initialization.obj
 0003:00000db8       ___acrt_atexit_table       1001bdb8     libucrt:onexit.obj
 0003:00000dc4       ___acrt_at_quick_exit_table 1001bdc4     libucrt:onexit.obj
 0003:00000ddc       __nstream                  1001bddc     libucrt:_file.obj
 0003:00000de0       ___piob                    1001bde0     libucrt:_file.obj
 0003:00000de4       __cflush                   1001bde4     libucrt:_file.obj
 0003:00000df8       ___acrt_locale_changed_data 1001bdf8     libucrt:wsetlocale.obj
 0003:00000dfc       ___acrt_current_locale_data 1001bdfc     libucrt:nlsdata.obj
 0003:00001014       ___mblocalename            1001c014     libucrt:mbctype.obj
 0003:00001018       ___mbcodepage              1001c018     libucrt:mbctype.obj
 0003:0000101c       ___ismbcodepage            1001c01c     libucrt:mbctype.obj
 0003:00001020       ___mbulinfo                1001c020     libucrt:mbctype.obj
 0003:00001034       ___argc                    1001c034     libucrt:argv_data.obj
 0003:00001038       ___argv                    1001c038     libucrt:argv_data.obj
 0003:0000103c       ___wargv                   1001c03c     libucrt:argv_data.obj
 0003:00001040       __acmdln                   1001c040     libucrt:argv_data.obj
 0003:00001044       __wcmdln                   1001c044     libucrt:argv_data.obj
 0003:00001048       __pgmptr                   1001c048     libucrt:argv_data.obj
 0003:0000104c       ___acrt_heap               1001c04c     libucrt:heap_handle.obj
 0003:00001050       ___pioinfo                 1001c050     libucrt:ioinit.obj
 0003:00001250       __nhandle                  1001c250     libucrt:ioinit.obj
 0003:0000125c       ___acrt_stdout_buffer      1001c25c     libucrt:_sftbuf.obj
 0003:00001260       ___acrt_stderr_buffer      1001c260     libucrt:_sftbuf.obj
 0003:0000126c       ___acrt_lconv_static_null  1001c26c     libucrt:localeconv.obj
 0003:00001270       ___acrt_lconv_static_W_null 1001c270     libucrt:localeconv.obj
 0003:00001274       ___fastflag                1001c274     libucrt:fp_flags.obj
 0003:0000127c       ?DloadKernel32@@3PAUHINSTANCE__@@A 1001c27c     DelayImp:delayhlp.obj
 0003:00001280       ?DloadAcquireSRWLockExclusive@@3P6GXPAK@ZA 1001c280     DelayImp:delayhlp.obj
 0003:00001284       ?DloadReleaseSRWLockExclusive@@3P6GXPAK@ZA 1001c284     DelayImp:delayhlp.obj
 0003:00001288       ?DloadSrwLock@@3KA         1001c288     DelayImp:delayhlp.obj
 0003:0000128c       ?DloadSectionLockCount@@3KA 1001c28c     DelayImp:delayhlp.obj
 0003:00001290       ?DloadSectionOldProtection@@3KA 1001c290     DelayImp:delayhlp.obj
 0003:00001294       ?DloadSectionCommitPermanent@@3KA 1001c294     DelayImp:delayhlp.obj
 0003:00001298       ___scrt_ucrt_dll_is_in_use 1001c298     <common>
 0003:0000129c       ___dyn_tls_init_callback   1001c29c     <common>
 0003:000012a0       __pDestructExceptionObject 1001c2a0     <common>
 0003:000012a4       __pmatherr                 1001c2a4     <common>
 0003:000012a8       ___use_sse2_mathfcns       1001c2a8     <common>

 entry point at        0001:00000cbf

 Static symbols

 0000:fffdf000       .debug$S                   10000000     node:node.exe
 0000:fffdf000       .debug$S                   10000000     node:node.exe
 0000:fffdf000       .debug$S                   10000000     node:node.exe
 0000:fffdf000       .debug$S                   10000000     node:node.exe
 0000:fffdf000       .debug$S                   10000000     node:node.exe
 0000:fffdf000       .debug$S                   10000000     node:node.exe
 0000:fffdf000       .debug$S                   10000000     node:node.exe
 0000:fffdf000       .debug$S                   10000000     node:node.exe
 0000:fffdf000       .debug$S                   10000000     rsa_keygen.exp
 0000:fffdf000       .debug$S                   10000000     node:node.exe
 0000:fffdf000       .debug$S                   10000000     node:node.exe
 0000:fffdf000       .debug$S                   10000000     node:node.exe
 0000:fffdf000       .debug$S                   10000000     node:node.exe
 0000:fffdf000       .debug$S                   10000000     node:node.exe
 0000:fffdf000       .debug$S                   10000000     kernel32:KERNEL32.dll
 0000:fffdf000       .debug$S                   10000000     kernel32:KERNEL32.dll
 0000:fffdf000       .debug$S                   10000000     kernel32:KERNEL32.dll
 0000:fffdf000       .debug$S                   10000000     kernel32:KERNEL32.dll
 0000:fffdf000       .debug$S                   10000000     kernel32:KERNEL32.dll
 0000:fffdf000       .debug$S                   10000000     kernel32:KERNEL32.dll
 0000:fffdf000       .debug$S                   10000000     kernel32:KERNEL32.dll
 0000:fffdf000       .debug$S                   10000000     kernel32:KERNEL32.dll
 0000:fffdf000       .debug$S                   10000000     kernel32:KERNEL32.dll
 0000:fffdf000       .debug$S                   10000000     kernel32:KERNEL32.dll
 0000:fffdf000       .debug$S                   10000000     kernel32:KERNEL32.dll
 0000:fffdf000       .debug$S                   10000000     kernel32:KERNEL32.dll
 0000:fffdf000       .debug$S                   10000000     kernel32:KERNEL32.dll
 0000:fffdf000       .debug$S                   10000000     kernel32:KERNEL32.dll
 0000:fffdf000       .debug$S                   10000000     kernel32:KERNEL32.dll
 0000:fffdf000       .debug$S                   10000000     kernel32:KERNEL32.dll
 0000:fffdf000       .debug$S                   10000000     kernel32:KERNEL32.dll
 0000:fffdf000       .debug$S                   10000000     kernel32:KERNEL32.dll
 0000:fffdf000       .debug$S                   10000000     kernel32:KERNEL32.dll
 0000:fffdf000       .debug$S                   10000000     kernel32:KERNEL32.dll
 0000:fffdf000       .debug$S                   10000000     kernel32:KERNEL32.dll
 0000:fffdf000       .debug$S                   10000000     kernel32:KERNEL32.dll
 0000:fffdf000       .debug$S                   10000000     kernel32:KERNEL32.dll
 0000:fffdf000       .debug$S                   10000000     kernel32:KERNEL32.dll
 0000:fffdf000       .debug$S                   10000000     kernel32:KERNEL32.dll
 0000:fffdf000       .debug$S                   10000000     kernel32:KERNEL32.dll
 0000:fffdf000       .debug$S                   10000000     kernel32:KERNEL32.dll
 0000:fffdf000       .debug$S                   10000000     kernel32:KERNEL32.dll
 0000:fffdf000       .debug$S                   10000000     kernel32:KERNEL32.dll
 0000:fffdf000       .debug$S                   10000000     kernel32:KERNEL32.dll
 0000:fffdf000       .debug$S                   10000000     kernel32:KERNEL32.dll
 0000:fffdf000       .debug$S                   10000000     kernel32:KERNEL32.dll
 0000:fffdf000       .debug$S                   10000000     kernel32:KERNEL32.dll
 0000:fffdf000       .debug$S                   10000000     kernel32:KERNEL32.dll
 0000:fffdf000       .debug$S                   10000000     kernel32:KERNEL32.dll
 0000:fffdf000       .debug$S                   10000000     kernel32:KERNEL32.dll
 0000:fffdf000       .debug$S                   10000000     kernel32:KERNEL32.dll
 0000:fffdf000       .debug$S                   10000000     kernel32:KERNEL32.dll
 0000:fffdf000       .debug$S                   10000000     kernel32:KERNEL32.dll
 0000:fffdf000       .debug$S                   10000000     kernel32:KERNEL32.dll
 0000:fffdf000       .debug$S                   10000000     kernel32:KERNEL32.dll
 0000:fffdf000       .debug$S                   10000000     kernel32:KERNEL32.dll
 0000:fffdf000       .debug$S                   10000000     kernel32:KERNEL32.dll
 0000:fffdf000       .debug$S                   10000000     kernel32:KERNEL32.dll
 0000:fffdf000       .debug$S                   10000000     kernel32:KERNEL32.dll
 0000:fffdf000       .debug$S                   10000000     kernel32:KERNEL32.dll
 0000:fffdf000       .debug$S                   10000000     kernel32:KERNEL32.dll
 0000:fffdf000       .debug$S                   10000000     kernel32:KERNEL32.dll
 0000:fffdf000       .debug$S                   10000000     kernel32:KERNEL32.dll
 0000:fffdf000       .debug$S                   10000000     kernel32:KERNEL32.dll
 0000:fffdf000       .debug$S                   10000000     kernel32:KERNEL32.dll
 0000:fffdf000       .debug$S                   10000000     kernel32:KERNEL32.dll
 0000:fffdf000       .debug$S                   10000000     kernel32:KERNEL32.dll
 0000:fffdf000       .debug$S                   10000000     kernel32:KERNEL32.dll
 0000:fffdf000       .debug$S                   10000000     kernel32:KERNEL32.dll
 0000:fffdf000       .debug$S                   10000000     kernel32:KERNEL32.dll
 0000:fffdf000       .debug$S                   10000000     kernel32:KERNEL32.dll
 0000:fffdf000       .debug$S                   10000000     kernel32:KERNEL32.dll
 0000:fffdf000       .debug$S                   10000000     kernel32:KERNEL32.dll
 0000:fffdf000       .debug$S                   10000000     kernel32:KERNEL32.dll
 0000:fffdf000       .debug$S                   10000000     kernel32:KERNEL32.dll
 0000:fffdf000       .debug$S                   10000000     kernel32:KERNEL32.dll
 0000:fffdf000       .debug$S                   10000000     kernel32:KERNEL32.dll
 0000:fffdf000       .debug$S                   10000000     kernel32:KERNEL32.dll
 0000:fffdf000       .debug$S                   10000000     kernel32:KERNEL32.dll
 0000:fffdf000       .debug$S                   10000000     kernel32:KERNEL32.dll
 0000:fffdf000       .debug$S                   10000000     kernel32:KERNEL32.dll
 0000:fffdf000       .debug$S                   10000000     kernel32:KERNEL32.dll
 0000:fffdf000       .debug$S                   10000000     kernel32:KERNEL32.dll
 0000:fffdf000       .debug$S                   10000000     kernel32:KERNEL32.dll
 0000:fffdf000       .debug$S                   10000000     kernel32:KERNEL32.dll
 0000:fffdf000       .debug$S                   10000000     kernel32:KERNEL32.dll
 0000:fffdf000       .debug$S                   10000000     kernel32:KERNEL32.dll
 0000:fffdf000       .debug$S                   10000000     kernel32:KERNEL32.dll
 0000:fffdf000       .debug$S                   10000000     kernel32:KERNEL32.dll
 0000:fffdf000       .debug$S                   10000000     kernel32:KERNEL32.dll
 0000:fffdf000       .debug$S                   10000000     kernel32:KERNEL32.dll
 0000:fffdf000       .debug$S                   10000000     kernel32:KERNEL32.dll
 0000:fffdf000       .debug$S                   10000000     kernel32:KERNEL32.dll
 0000:fffdf000       .debug$S                   10000000     kernel32:KERNEL32.dll
 0000:fffdf000       .debug$S                   10000000     kernel32:KERNEL32.dll
 0000:fffdf000       .debug$S                   10000000     kernel32:KERNEL32.dll
 0000:fffdf000       .debug$S                   10000000     kernel32:KERNEL32.dll
 0000:fffdf000       .debug$S                   10000000     kernel32:KERNEL32.dll
 0000:fffdf000       .debug$S                   10000000     kernel32:KERNEL32.dll
 0000:fffdf000       .debug$S                   10000000     kernel32:KERNEL32.dll
 0000:fffdf000       .debug$S                   10000000     kernel32:KERNEL32.dll
 0000:fffdf000       .debug$S                   10000000     kernel32:KERNEL32.dll
 0000:fffdf000       .debug$S                   10000000     kernel32:KERNEL32.dll
 0000:fffdf000       .debug$S                   10000000     node:node.exe
 0000:fffdf000       .debug$S                   10000000     node:node.exe
 0000:fffdf000       .debug$S                   10000000     node:node.exe
 0000:fffdf000       .debug$S                   10000000     node:node.exe
 0000:fffdf000       .debug$S                   10000000     node:node.exe
 0000:fffdf000       .debug$S                   10000000     node:node.exe
 0000:fffdf000       .debug$S                   10000000     node:node.exe
 0000:fffdf000       .debug$S                   10000000     node:node.exe
 0000:fffdf000       .debug$S                   10000000     node:node.exe
 0000:fffdf000       .debug$S                   10000000     node:node.exe
 0000:fffdf000       .debug$S                   10000000     node:node.exe
 0000:fffdf000       .debug$S                   10000000     node:node.exe
 0000:fffdf000       .debug$S                   10000000     node:node.exe
 0000:fffdf000       .debug$S                   10000000     node:node.exe
 0000:fffdf000       .debug$S                   10000000     node:node.exe
 0000:fffdf000       .debug$S                   10000000     node:node.exe
 0000:fffdf000       .debug$S                   10000000     node:node.exe
 0000:fffdf000       .debug$S                   10000000     node:node.exe
 0000:fffdf000       .debug$S                   10000000     node:node.exe
 0000:fffdf000       .debug$S                   10000000     node:node.exe
 0000:fffdf000       .debug$S                   10000000     node:node.exe
 0000:fffdf000       .debug$S                   10000000     node:node.exe
 0000:fffdf000       .debug$S                   10000000     node:node.exe
 0000:fffdf000       .debug$S                   10000000     node:node.exe
 0000:fffdf000       .debug$S                   10000000     node:node.exe
 0000:fffdf000       .debug$S                   10000000     node:node.exe
 0000:fffdf000       .debug$S                   10000000     node:node.exe
 0000:fffdf000       .debug$S                   10000000     node:node.exe
 0000:fffdf000       .debug$S                   10000000     node:node.exe
 0000:fffdf000       .debug$S                   10000000     node:node.exe
 0000:fffdf000       .debug$S                   10000000     node:node.exe
 0000:fffdf000       .debug$S                   10000000     node:node.exe
 0001:00000000       ?FunctionCallbackWrapper@imp@Nan@@YAXABV?$FunctionCallbackInfo@VValue@v8@@@v8@@@Z 10001000 f   rsa_keygen.obj
 0001:000002e0       ?generateKey@@YAPAUrsa_st@@HK@Z 100012e0 f   rsa_keygen.obj
 0001:00000350       ?toBuffer@@YA?AV?$MaybeLocal@VObject@v8@@@v8@@PAUbio_st@@@Z 10001350 f   rsa_keygen.obj
 0001:000007a0       __register_rsa_keygen      100017a0 f   rsa_keygen.obj
 0001:000007b0       ?load_exe_hook@@YGP6GHXZIPAUDelayLoadInfo@@@Z 100017b0 f   win_delay_load_hook.obj
 0001:000009b7       ?dllmain_crt_dispatch@@YGHQAUHINSTANCE__@@KQAX@Z 100019b7 f   LIBCMT:dll_dllmain.obj
 0001:00000a0a       ?dllmain_crt_process_attach@@YAHQAUHINSTANCE__@@QAX@Z 10001a0a f   LIBCMT:dll_dllmain.obj
 0001:00000b1c       ?dllmain_crt_process_detach@@YAH_N@Z 10001b1c f   LIBCMT:dll_dllmain.obj
 0001:00000b99       ?dllmain_dispatch@@YAHQAUHINSTANCE__@@KQAX@Z 10001b99 f   LIBCMT:dll_dllmain.obj
 0001:00000c95       ?dllmain_raw@@YGHQAUHINSTANCE__@@KQAX@Z 10001c95 f   LIBCMT:dll_dllmain.obj
 0001:00000e05       ?find_pe_section@@YAPAU_IMAGE_SECTION_HEADER@@QAEI@Z 10001e05 f   LIBCMT:utility.obj
 0001:000013a0       $$000000                   100023a0     LIBCMT:_sehprolg4_.obj
 0001:000015b0       _ValidateLocalCookies      100025b0 f   libvcruntime:_chandler4_.obj
 0001:000017e0       $$000000                   100027e0     libvcruntime:memset.obj
 0001:00001940       $$000000                   10002940     libvcruntime:_exsup4_.obj
 0001:000019d0       __unwind_handler4          100029d0 f   libvcruntime:_exsup4_.obj
 0001:00001c59       ?try_get_function@@YAPAXW4function_id@?A0x89697e75@@QBDQBW4module_id@2@2@Z 10002c59 f   libvcruntime:winapi_downlevel.obj
 0001:00001cf9       ?try_get_module@@YAPAUHINSTANCE__@@W4module_id@?A0x89697e75@@@Z 10002cf9 f   libvcruntime:winapi_downlevel.obj
 0001:00001f40       $$000000                   10002f40     libvcruntime:_exsup_.obj
 0001:00001f60       __unwind_handler           10002f60 f   libvcruntime:_exsup_.obj
 0001:00002077       ??$common_assert_to_message_box@_W@@YAXQB_W0IQAX@Z 10003077 f   libucrt:assert.obj
 0001:00002113       ??$common_assert_to_message_box_build_string@_W@@YAXQA_WIQB_W1IQAX@Z 10003113 f   libucrt:assert.obj
 0001:00002658       ??$common_assert_to_stderr@_W@@YAXQB_W0I@Z 10003658 f   libucrt:assert.obj
 0001:00002703       ?common_assert_to_stderr_direct@@YAXQB_W0I@Z 10003703 f   libucrt:assert.obj
 0001:000027b4       ?get_assert_format@@YAPB_W_W@Z 100037b4 f   libucrt:assert.obj
 0001:00002c63       ?atexit_exception_filter@@YAHK@Z 10003c63 f   libucrt:exit.obj
 0001:00002c76       ?common_exit@@YAXHW4_crt_exit_cleanup_mode@@W4_crt_exit_return_mode@@@Z 10003c76 f   libucrt:exit.obj
 0001:00002d8f       ?exit_or_terminate_process@@YAXI@Z 10003d8f f   libucrt:exit.obj
 0001:00002dd0       ?is_managed_app@@YA_NXZ    10003dd0 f   libucrt:exit.obj
 0001:00002e14       ?try_cor_exit_process@@YAXI@Z 10003e14 f   libucrt:exit.obj
 0001:00002eb8       ??$common_configure_argv@D@@YAHW4_crt_argv_mode@@@Z 10003eb8 f   libucrt:argv_parsing.obj
 0001:00002fdc       ??$parse_command_line@D@@YAXPADPAPAD0PAI2@Z 10003fdc f   libucrt:argv_parsing.obj
 0001:000031b1       ??$common_initialize_environment_nolock@D@@YAHXZ 100041b1 f   libucrt:environment_initialization.obj
 0001:0000320a       ??$create_environment@D@@YAQAPADQAD@Z 1000420a f   libucrt:environment_initialization.obj
 0001:000032db       ??$free_environment@_W@@YAXQAPA_W@Z 100042db f   libucrt:environment_initialization.obj
 0001:000032db       ??$free_environment@D@@YAXQAPAD@Z 100042db f   libucrt:environment_initialization.obj
 0001:0000334a       ??$uninitialize_environment_internal@D@@YAXAAPAPAD@Z 1000434a f   libucrt:environment_initialization.obj
 0001:00003365       ??$uninitialize_environment_internal@_W@@YAXAAPAPA_W@Z 10004365 f   libucrt:environment_initialization.obj
 0001:000034cd       ??R<lambda_275893d493268fdec8709772e3fcec0e>@@QBEHXZ 100044cd f   libucrt:onexit.obj
 0001:000035ed       ??R<lambda_4e60a939b0d047cfe11ddc22648dfba9>@@QBEHXZ 100045ed f   libucrt:onexit.obj
 0001:000037c2       _initialize_global_variables 100047c2 f   libucrt:initialization.obj
 0001:000037d4       _initialize_c              100047d4 f   libucrt:initialization.obj
 0001:000037ee       _uninitialize_global_state_isolation 100047ee f   libucrt:initialization.obj
 0001:000037ee       _report_memory_leaks       100047ee f   libucrt:initialization.obj
 0001:000037ee       _initialize_environment    100047ee f   libucrt:initialization.obj
 0001:000037ee       _initialize_global_state_isolation 100047ee f   libucrt:initialization.obj
 0001:000037ee       _uninitialize_c            100047ee f   libucrt:initialization.obj
 0001:000037f1       _uninitialize_environment  100047f1 f   libucrt:initialization.obj
 0001:000037f9       _initialize_pointers       100047f9 f   libucrt:initialization.obj
 0001:00003836       _uninitialize_vcruntime    10004836 f   libucrt:initialization.obj
 0001:0000383f       _uninitialize_allocated_memory 1000483f f   libucrt:initialization.obj
 0001:00003b36       ??$common_vsprintf@Vstandard_base@__crt_stdio_output@@_W@@YAH_KQA_WIQB_WQAU__crt_locale_pointers@@QAD@Z 10004b36 f   libucrt:output.obj
 0001:00004020       ??R<lambda_481dd5778c961fbcd3b60b650e9b9dc4>@@QBEHXZ 10005020 f   libucrt:output.obj
 0001:00004322       $LN54                      10005322     libucrt:output.obj
 0001:00004442       $LN54                      10005442     libucrt:output.obj
 0001:00004d46       $LN19                      10005d46     libucrt:output.obj
 0001:00006044       ??$common_xtox@K_W@@YAHKQA_WII_N@Z 10007044 f   libucrt:xtoa.obj
 0001:000060d2       ??$common_xtox_s@K_W@@YAHKQA_WII_N@Z 100070d2 f   libucrt:xtoa.obj
 0001:0000627e       ??$common_tcsncat_s@_W@@YAHQA_WIQB_WI@Z 1000727e f   libucrt:wcsncat_s.obj
 0001:00006372       ??$common_show_message_box@_W@@YAHQB_W0I@Z 10007372 f   libucrt:crtmbox.obj
 0001:0000644b       ??$message_box_wait_thread@_W@@YGKQAX@Z 1000744b f   libucrt:crtmbox.obj
 0001:0000667a       _common_flush_all          1000767a f   libucrt:fflush.obj
 0001:00006824       ??R<lambda_b721fa326cdb32351d23dfa67958c160>@@QBEHXZ 10007824 f   libucrt:setvbuf.obj
 0001:000068be       ?set_buffer@@YAHV__crt_stdio_stream@@QADIH@Z 100078be f   libucrt:setvbuf.obj
 0001:000069e9       ?get_global_action_nolock@@YAPAP6AXH@ZH@Z 100079e9 f   libucrt:signal.obj
 0001:00006a2b       ?siglookup@@YAPAU__crt_signal_action_t@@HQAU1@@Z 10007a2b f   libucrt:signal.obj
 0001:00006cb6       ??$common_tox_l@$1?internal_isupper_l@@YA_NHQAU__crt_locale_pointers@@@Z$1?internal_map_lower@@YAHH0@Z@@YAHHKQAU__crt_locale_pointers@@@Z 10007cb6 f   libucrt:tolower_toupper.obj
 0001:00006e00       ?internal_isupper_l@@YA_NHQAU__crt_locale_pointers@@@Z 10007e00 f   libucrt:tolower_toupper.obj
 0001:0000704b       ?construct_ptd@@YAXQAU__acrt_ptd@@QAPAU__crt_locale_data@@@Z 1000804b f   libucrt:per_thread_data.obj
 0001:000070c4       ?destroy_fls@@YGXPAX@Z     100080c4 f   libucrt:per_thread_data.obj
 0001:000070e5       ?destroy_ptd@@YAXQAU__acrt_ptd@@@Z 100080e5 f   libucrt:per_thread_data.obj
 0001:0000718e       ?replace_current_thread_locale_nolock@@YAXQAU__acrt_ptd@@QAU__crt_locale_data@@@Z 1000818e f   libucrt:per_thread_data.obj
 0001:000074ab       ?try_get_MessageBoxA@@YAP6GHPAUHWND__@@PBD1I@ZXZ 100084ab f   libucrt:winapi_thunks.obj
 0001:000074c5       ?try_get_MessageBoxW@@YAP6GHPAUHWND__@@PB_W1I@ZXZ 100084c5 f   libucrt:winapi_thunks.obj
 0001:000074df       ?try_get_function@@YAPAXW4function_id@?A0x352e5c4b@@QBDQBW4module_id@2@2@Z 100084df f   libucrt:winapi_thunks.obj
 0001:0000757b       ?try_get_module@@YAPAUHINSTANCE__@@W4module_id@?A0x352e5c4b@@@Z 1000857b f   libucrt:winapi_thunks.obj
 0001:00007b01       ?<helper_func_cdecl>@<lambda_62bb7ecb46d0a77b591a051c43eb5ad1>@@CAHPBX0@Z 10008b01 f   libucrt:argv_wildcards.obj
 0001:00007b19       ??$common_expand_argv_wildcards@D@@YAHQAPADQAPAPAD@Z 10008b19 f   libucrt:argv_wildcards.obj
 0001:00007ca9       ??$copy_and_add_argument_to_buffer@D@@YAHQBD0IAAV?$argument_list@D@?A0xb0e4b824@@@Z 10008ca9 f   libucrt:argv_wildcards.obj
 0001:00007d3f       ??$expand_argument_wildcards@D@@YAHQAD0AAV?$argument_list@D@?A0xb0e4b824@@@Z 10008d3f f   libucrt:argv_wildcards.obj
 0001:0000801a       ??R<lambda_ad1ced32f4ac17aa236e5ef05d6b3b7c>@@QBEXXZ 1000901a f   libucrt:mbctype.obj
 0001:000080de       ?CPtoLocaleName@@YAPB_WH@Z 100090de f   libucrt:mbctype.obj
 0001:0000811c       ?getSystemCP@@YAHH@Z       1000911c f   libucrt:mbctype.obj
 0001:0000818f       ?setSBCS@@YAXPAU__crt_multibyte_data@@@Z 1000918f f   libucrt:mbctype.obj
 0001:000081f4       ?setSBUpLow@@YAXPAU__crt_multibyte_data@@@Z 100091f4 f   libucrt:mbctype.obj
 0001:00008388       ?setmbcp_internal@@YAHH_N@Z 10009388 f   libucrt:mbctype.obj
 0001:0000873a       ?x_ismbbtype_l@@YAHPAU__crt_locale_pointers@@IHH@Z 1000973a f   libucrt:ismbbyte.obj
 0001:000087c4       ?find_end_of_double_null_terminated_sequence@@YAPB_WQB_W@Z 100097c4 f   libucrt:get_environment_from_os.obj
 0001:00008911       ?initialize_inherited_file_handles_nolock@@YAXXZ 10009911 f   libucrt:ioinit.obj
 0001:000089c7       ?initialize_stdio_handles_nolock@@YAXXZ 100099c7 f   libucrt:ioinit.obj
 0001:00009353       ?fp_format_a@@YAHQBNPADIQADIH_NIQAU__crt_locale_pointers@@@Z 1000a353 f   libucrt:cvt.obj
 0001:00009656       ?fp_format_e@@YAHQBNQADI1IH_NIQAU__crt_locale_pointers@@@Z 1000a656 f   libucrt:cvt.obj
 0001:000096f1       ?fp_format_e_internal@@YAHQADIH_NIQAU_strflt@@1QAU__crt_locale_pointers@@@Z 1000a6f1 f   libucrt:cvt.obj
 0001:0000983c       ?fp_format_f@@YAHQBNQADI1IHQAU__crt_locale_pointers@@@Z 1000a83c f   libucrt:cvt.obj
 0001:000098c9       ?fp_format_f_internal@@YAHQADIHQAU_strflt@@_NQAU__crt_locale_pointers@@@Z 1000a8c9 f   libucrt:cvt.obj
 0001:000099a0       ?fp_format_g@@YAHQBNQADI1IH_NIQAU__crt_locale_pointers@@@Z 1000a9a0 f   libucrt:cvt.obj
 0001:00009a68       ?fp_format_nan_or_infinity@@YAHW4__acrt_fp_class@@_NPADI1@Z 1000aa68 f   libucrt:cvt.obj
 0001:00009b60       ?shift_bytes@@YAXQADI0H@Z  1000ab60 f   libucrt:cvt.obj
 0001:00009cde       ?fputwc_binary_nolock@@YAG_WV__crt_stdio_stream@@@Z 1000acde f   libucrt:fputwc.obj
 0001:0000a1fe       ?write_double_translated_ansi_nolock@@YA?AUwrite_result@?A0x47fa6670@@HQBDI@Z 1000b1fe f   libucrt:write.obj
 0001:0000a3b1       ?write_double_translated_unicode_nolock@@YA?AUwrite_result@?A0x47fa6670@@QBDI@Z 1000b3b1 f   libucrt:write.obj
 0001:0000a41e       ?write_requires_double_translation_nolock@@YA_NH@Z 1000b41e f   libucrt:write.obj
 0001:0000a494       ?write_text_ansi_nolock@@YA?AUwrite_result@?A0x47fa6670@@HQBDI@Z 1000b494 f   libucrt:write.obj
 0001:0000a573       ?write_text_utf16le_nolock@@YA?AUwrite_result@?A0x47fa6670@@HQBDI@Z 1000b573 f   libucrt:write.obj
 0001:0000a661       ?write_text_utf8_nolock@@YA?AUwrite_result@?A0x47fa6670@@HQBDI@Z 1000b661 f   libucrt:write.obj
 0001:0000aabe       ?__acrt_LCMapStringA_stat@@YAHPAU__crt_locale_pointers@@PB_WKPBDHPADHHH@Z 1000babe f   libucrt:lcmapstringa.obj
 0001:0000b23e       ?free_crt_array_internal@@YAXQAPBXI@Z 1000c23e f   libucrt:inittime.obj
 0001:0000b47b       ?GetTableIndexFromLocaleName@@YAHPB_W@Z 1000c47b f   libucrt:lcidtoname_downlevel.obj
 0001:0000b570       ?shortsort@@YAXPAD0IP6AHPBX1@Z@Z 1000c570 f   libucrt:qsort.obj
 0001:0000b610       ?swap@@YAXPAD0I@Z          1000c610 f   libucrt:qsort.obj
 0001:0000b9ea       ??$common_tcsncpy_s@D@@YAHQADIQBDI@Z 1000c9ea f   libucrt:strncpy_s.obj
 0001:0000bab0       $$000000                   1000cab0     libucrt:strpbrk.obj
 0001:0000bb94       ?initialize_multibyte@@YAHXZ 1000cb94 f   libucrt:multibyte_initializer.obj
 0001:0000d85a       _memcpy_s                  1000e85a f   libucrt:mbctype.obj
 0001:0000d85a       _memcpy_s                  1000e85a f   libucrt:cfout.obj
 0001:0000d85a       _memcpy_s                  1000e85a f   libucrt:assert.obj
 0001:0000d8db       ??$common_flush_and_write_nolock@D@@YAHHV__crt_stdio_stream@@@Z 1000e8db f   libucrt:_flsbuf.obj
 0001:0000d9ec       ??$common_flush_and_write_nolock@_W@@YAHHV__crt_stdio_stream@@@Z 1000e9ec f   libucrt:_flsbuf.obj
 0001:0000db01       ??$write_buffer_nolock@D@@YA_NDV__crt_stdio_stream@@@Z 1000eb01 f   libucrt:_flsbuf.obj
 0001:0000dbcd       ??$write_buffer_nolock@_W@@YA_N_WV__crt_stdio_stream@@@Z 1000ebcd f   libucrt:_flsbuf.obj
 0001:0000ddad       ??$common_lseek@_J@@YA_JH_JH@Z 1000edad f   libucrt:lseek.obj
 0001:0000deb2       ??$common_lseek_nolock@_J@@YA_JH_JH@Z 1000eeb2 f   libucrt:lseek.obj
 0001:0000e080       $$000000                   1000f080     libucrt:log10.obj
 0001:0000e1d0       $$000000                   1000f1d0     libucrt:ceil_pentium4.obj
 0001:0000e580       $$000000                   1000f580     libucrt:_strnicm.obj
 0001:0000e5e1       ___get_abstract_control_sse2 1000f5e1 f   libucrt:_fenvutils.obj
 0001:0000e65e       ___get_abstract_control_x87 1000f65e f   libucrt:_fenvutils.obj
 0001:0000e6d1       ___get_machine_control     1000f6d1 f   libucrt:_fenvutils.obj
 0001:0000e742       ___get_machine_control_sse2 1000f742 f   libucrt:_fenvutils.obj
 0001:0000e7c2       ___get_machine_status_sse2 1000f7c2 f   libucrt:_fenvutils.obj
 0001:0000e823       ___get_machine_status_x87  1000f823 f   libucrt:_fenvutils.obj
 0001:0000eb60       $$000000                   1000fb60     libucrt:log10_pentium4.obj
 0001:0000edf0       $$000000                   1000fdf0     libucrt:87tran.obj
 0001:0000eff0       $$000000                   1000fff0     libucrt:87disp.obj
 0001:0000f1f0       $$000000                   100101f0     libucrt:common.obj
 0001:0000f380       $$000000                   10010380     libucrt:genexcep.obj
 0001:000109b0       $$000000                   100119b0     LIBCMT:ulldvrm.obj
 0001:00010a50       $$000000                   10011a50     LIBCMT:_sehprolg4gs_.obj
 0001:00010ab0       $$000000                   10011ab0     LIBCMT:llmul.obj
 0001:00010af0       $$000000                   10011af0     LIBCMT:lldvrm.obj
 0001:00010bd0       $$000000                   10011bd0     LIBCMT:ullshr.obj
 0001:00010bf0       $$000000                   10011bf0     LIBCMT:chkstk.obj
 0001:00010c20       $$000000                   10011c20     LIBCMT:alloca16.obj
 0001:00010c50       $$000000                   10011c50     LIBCMT:llshl.obj
 0001:00010c70       $$000000                   10011c70     LIBCMT:_ftol2_.obj
 0001:00010d30       $$000000                   10011d30     libvcruntime:memcpy.obj
 0001:00010f94       TrailingUpVec              10011f94     libvcruntime:memcpy.obj
 0001:00011040       TrailingDownVec            10012040     libvcruntime:memcpy.obj
 0001:000112b0       $$000000                   100122b0     libvcruntime:strchr.obj
 0001:000113e0       $$000000                   100123e0     libvcruntime:memmove.obj
 0001:00011644       TrailingUpVec              10012644     libvcruntime:memmove.obj
 0001:000116f0       TrailingDownVec            100126f0     libvcruntime:memmove.obj
 0001:00011960       $$000000                   10012960     libvcruntime:strrchr.obj
 0002:00000180       _GS_ExceptionPointers      10013180     LIBCMT:gs_report.obj
 0002:00000188       ?module_names@?A0x89697e75@@3QBQB_WB 10013188     libvcruntime:winapi_downlevel.obj
 0002:00000238       ?candidate_modules@?1??try_get_FlsAlloc@@YAP6GKP6GXPAX@Z@ZXZ@4QBW4module_id@?A0x89697e75@@B 10013238     libvcruntime:winapi_downlevel.obj
 0002:0000024c       ?candidate_modules@?1??try_get_FlsFree@@YAP6GHK@ZXZ@4QBW4module_id@?A0x89697e75@@B 1001324c     libvcruntime:winapi_downlevel.obj
 0002:0000025c       ?candidate_modules@?1??try_get_FlsGetValue@@YAP6GPAXK@ZXZ@4QBW4module_id@?A0x89697e75@@B 1001325c     libvcruntime:winapi_downlevel.obj
 0002:00000270       ?candidate_modules@?1??try_get_FlsSetValue@@YAP6GHKPAX@ZXZ@4QBW4module_id@?A0x89697e75@@B 10013270     libvcruntime:winapi_downlevel.obj
 0002:00000284       ?candidate_modules@?1??try_get_InitializeCriticalSectionEx@@YAP6GHPAU_RTL_CRITICAL_SECTION@@KK@ZXZ@4QBW4module_id@?A0x89697e75@@B 10013284     libvcruntime:winapi_downlevel.obj
 0002:000002a8       ?tokenTable@@3QBQBDB       100132a8     libvcruntime:undname.obj
 0002:000002e0       ?nameTable@@3QBQBDB        100132e0     libvcruntime:undname.obj
 0002:00000424       ?rttiTable@@3QBQBDB        10013424     libvcruntime:undname.obj
 0002:00000d88       ___acrt_initializers       10013d88     libucrt:initialization.obj
 0002:00000e78       _errtable                  10013e78     libucrt:errno.obj
 0002:000014a8       _module_names              100144a8     libucrt:winapi_thunks.obj
 0002:00001948       ?candidate_modules@?1??try_get_FlsAlloc@@YAP6GKP6GXPAX@Z@ZXZ@4QBW4module_id@?A0x352e5c4b@@B 10014948     libucrt:winapi_thunks.obj
 0002:00001950       ?candidate_modules@?1??try_get_FlsFree@@YAP6GHK@ZXZ@4QBW4module_id@?A0x352e5c4b@@B 10014950     libucrt:winapi_thunks.obj
 0002:00001958       ?candidate_modules@?1??try_get_FlsGetValue@@YAP6GPAXK@ZXZ@4QBW4module_id@?A0x352e5c4b@@B 10014958     libucrt:winapi_thunks.obj
 0002:00001960       ?candidate_modules@?1??try_get_FlsSetValue@@YAP6GHKPAX@ZXZ@4QBW4module_id@?A0x352e5c4b@@B 10014960     libucrt:winapi_thunks.obj
 0002:00001968       ?candidate_modules@?1??try_get_GetActiveWindow@@YAP6GPAUHWND__@@XZXZ@4QBW4module_id@?A0x352e5c4b@@B 10014968     libucrt:winapi_thunks.obj
 0002:00001980       ?candidate_modules@?1??try_get_GetCurrentPackageId@@YAP6GJPAIPAE@ZXZ@4QBW4module_id@?A0x352e5c4b@@B 10014980     libucrt:winapi_thunks.obj
 0002:0000199c       ?candidate_modules@?1??try_get_GetLastActivePopup@@YAP6GPAUHWND__@@PAU2@@ZXZ@4QBW4module_id@?A0x352e5c4b@@B 1001499c     libucrt:winapi_thunks.obj
 0002:000019b8       ?candidate_modules@?1??try_get_GetProcessWindowStation@@YAP6GPAUHWINSTA__@@XZXZ@4QBW4module_id@?A0x352e5c4b@@B 100149b8     libucrt:winapi_thunks.obj
 0002:000019d8       ?candidate_modules@?1??try_get_GetUserObjectInformationW@@YAP6GHPAXH0KPAK@ZXZ@4QBW4module_id@?A0x352e5c4b@@B 100149d8     libucrt:winapi_thunks.obj
 0002:000019fc       ?candidate_modules@?1??try_get_InitializeCriticalSectionEx@@YAP6GHPAU_RTL_CRITICAL_SECTION@@KK@ZXZ@4QBW4module_id@?A0x352e5c4b@@B 100149fc     libucrt:winapi_thunks.obj
 0002:00001a04       ?candidate_modules@?1??try_get_LCMapStringEx@@YAP6GHPB_WK0HPA_WHPAU_nlsversioninfo@@PAXJ@ZXZ@4QBW4module_id@?A0x352e5c4b@@B 10014a04     libucrt:winapi_thunks.obj
 0002:00001a1c       ?candidate_modules@?1??try_get_LocaleNameToLCID@@YAP6GKPB_WK@ZXZ@4QBW4module_id@?A0x352e5c4b@@B 10014a1c     libucrt:winapi_thunks.obj
 0002:00001a38       ?candidate_modules@?1??try_get_MessageBoxA@@YAP6GHPAUHWND__@@PBD1I@ZXZ@4QBW4module_id@?A0x352e5c4b@@B 10014a38     libucrt:winapi_thunks.obj
 0002:00001a4c       ?candidate_modules@?1??try_get_MessageBoxW@@YAP6GHPAUHWND__@@PB_W1I@ZXZ@4QBW4module_id@?A0x352e5c4b@@B 10014a4c     libucrt:winapi_thunks.obj
 0002:00001a60       __mb_locale_names          10014a60     libucrt:mbctype.obj
 0002:000022f8       _LcidToLocaleNameTable     100152f8     libucrt:lcidtoname_downlevel.obj
 0002:00003418       _LocaleNameToIndexTable    10016418     libucrt:lcidtoname_downlevel.obj
 0002:00004d50       LOG_name                   10017d50     libucrt:log10.obj
 0002:00004d60       _One                       10017d60     libucrt:ceil_pentium4.obj
 0002:00004d70       _Bns                       10017d70     libucrt:ceil_pentium4.obj
 0002:00004d80       _Zero                      10017d80     libucrt:ceil_pentium4.obj
 0002:00004d90       _S                         10017d90     libucrt:ceil_pentium4.obj
 0002:00004da0       _NegZero                   10017da0     libucrt:ceil_pentium4.obj
 0002:00004dc0       emask                      10017dc0     libucrt:log10_pentium4.obj
 0002:00004dd0       CC                         10017dd0     libucrt:log10_pentium4.obj
 0002:00004de0       Magic                      10017de0     libucrt:log10_pentium4.obj
 0002:00004df0       hi_mask                    10017df0     libucrt:log10_pentium4.obj
 0002:00004e00       LOG10_2                    10017e00     libucrt:log10_pentium4.obj
 0002:00004e10       place_L                    10017e10     libucrt:log10_pentium4.obj
 0002:00004e30       One                        10017e30     libucrt:log10_pentium4.obj
 0002:00004e40       Zero                       10017e40     libucrt:log10_pentium4.obj
 0002:00004e50       Two52                      10017e50     libucrt:log10_pentium4.obj
 0002:00004e60       Infs                       10017e60     libucrt:log10_pentium4.obj
 0002:00004e70       NaN                        10017e70     libucrt:log10_pentium4.obj
 0002:00004e80       coeff                      10017e80     libucrt:log10_pentium4.obj
 0002:00004ede       _log2max                   10017ede     libucrt:87tran.obj
 0002:00004ee8       _smallarg                  10017ee8     libucrt:87tran.obj
 0002:00004ef2       _half                      10017ef2     libucrt:87tran.obj
 0002:00004f3e       One                        10017f3e     libucrt:87disp.obj
 0002:00004f46       Three                      10017f46     libucrt:87disp.obj
 0002:00004f4e       XAMtoTagTab                10017f4e     libucrt:87disp.obj
 0002:00004f60       One                        10017f60     libucrt:common.obj
 0002:00004f74       DblMax                     10017f74     libucrt:common.obj
 0002:00004f7c       DblMin                     10017f7c     libucrt:common.obj
 0002:00004f84       IeeeAdjO                   10017f84     libucrt:common.obj
 0002:00004f8c       IeeeAdjU                   10017f8c     libucrt:common.obj
 0002:00004f94       _infinity                  10017f94     libucrt:common.obj
 0002:00004f9c       _zero                      10017f9c     libucrt:common.obj
 0002:00004fd8       _over                      10017fd8     libucrt:fpctrl.obj
 0002:00004fe4       _under                     10017fe4     libucrt:fpctrl.obj
 0002:000058a8       ?_names@?1??_get_fname@@9@9 100188a8     libucrt:fpexcept.obj
 0002:000060f0       __sehtable$?dllmain_crt_process_attach@@YAHQAUHINSTANCE__@@QAX@Z 100190f0     LIBCMT:dll_dllmain.obj
 0002:00006110       __sehtable$?dllmain_crt_process_detach@@YAH_N@Z 10019110     LIBCMT:dll_dllmain.obj
 0002:00006130       __sehtable$?dllmain_dispatch@@YAHQAUHINSTANCE__@@KQAX@Z 10019130     LIBCMT:dll_dllmain.obj
 0002:00006150       __sehtable$___scrt_is_nonwritable_in_current_image 10019150     LIBCMT:utility.obj
 0002:00006170       __sehtable$?common_exit@@YAXHW4_crt_exit_cleanup_mode@@W4_crt_exit_return_mode@@@Z 10019170     libucrt:exit.obj
 0002:00006198       __sehtable$??$?RV<lambda_800076c951b434888f4765a74a194fcc>@@AAV<lambda_4e60a939b0d047cfe11ddc22648dfba9>@@V<lambda_6dbb1268764f43b569ce7b67e331d33a>@@@?$__crt_seh_guarded_call@H@@QAEH$$QAV<lambda_800076c951b434888f4765a74a194fcc>@@AAV<lambda_4e60a939b0d047cfe11ddc22648dfba9>@@$$QAV<lambda_6dbb1268764f43b569ce7b67e331d33a>@@@Z 10019198     libucrt:onexit.obj
 0002:000061b8       __sehtable$??$?RV<lambda_995298e7d72eb4c2aab26c0585b3abe5>@@AAV<lambda_275893d493268fdec8709772e3fcec0e>@@V<lambda_293819299cbf9a7022e18b56a874bb5c>@@@?$__crt_seh_guarded_call@H@@QAEH$$QAV<lambda_995298e7d72eb4c2aab26c0585b3abe5>@@AAV<lambda_275893d493268fdec8709772e3fcec0e>@@$$QAV<lambda_293819299cbf9a7022e18b56a874bb5c>@@@Z 100191b8     libucrt:onexit.obj
 0002:000061d8       __sehtable$_terminate      100191d8     libucrt:terminate.obj
 0002:000061f8       __sehtable$??$?RV<lambda_ab9923ffb5d694ec0d78876dd103e44f>@@AAV<lambda_481dd5778c961fbcd3b60b650e9b9dc4>@@V<lambda_7923d86c9e3f319b415918ec4b39749c>@@@?$__crt_seh_guarded_call@H@@QAEH$$QAV<lambda_ab9923ffb5d694ec0d78876dd103e44f>@@AAV<lambda_481dd5778c961fbcd3b60b650e9b9dc4>@@$$QAV<lambda_7923d86c9e3f319b415918ec4b39749c>@@@Z 100191f8     libucrt:output.obj
 0002:00006218       __sehtable$_fflush         10019218     libucrt:fflush.obj
 0002:00006238       __sehtable$_common_flush_all 10019238     libucrt:fflush.obj
 0002:00006260       __sehtable$??$?RV<lambda_d92cfe8357b99225085016881b624cb0>@@AAV<lambda_b721fa326cdb32351d23dfa67958c160>@@V<lambda_42d75b0848218ec137fa420c8ba9fdf9>@@@?$__crt_seh_guarded_call@H@@QAEH$$QAV<lambda_d92cfe8357b99225085016881b624cb0>@@AAV<lambda_b721fa326cdb32351d23dfa67958c160>@@$$QAV<lambda_42d75b0848218ec137fa420c8ba9fdf9>@@@Z 10019260     libucrt:setvbuf.obj
 0002:00006280       __sehtable$_raise          10019280     libucrt:signal.obj
 0002:000062a0       __sehtable$??$?RV<lambda_a048d3beccc847880fc8490e18b82769>@@AAV<lambda_ec61778202f4f5fc7e7711acc23c3bca>@@V<lambda_f7496a158712204296dd6628a163878e>@@@?$__crt_seh_guarded_call@P6AXH@Z@@QAEP6AXH@Z$$QAV<lambda_a048d3beccc847880fc8490e18b82769>@@AAV<lambda_ec61778202f4f5fc7e7711acc23c3bca>@@$$QAV<lambda_f7496a158712204296dd6628a163878e>@@@Z 100192a0     libucrt:signal.obj
 0002:000062c0       __sehtable$??$?RV<lambda_9df27f884b057bc3edfc946cb5b7cf47>@@AAV<lambda_e69574bed617af4e071282c136b37893>@@V<lambda_cc0d902bcbbeb830f749456577db4721>@@@?$__crt_seh_guarded_call@X@@QAEX$$QAV<lambda_9df27f884b057bc3edfc946cb5b7cf47>@@AAV<lambda_e69574bed617af4e071282c136b37893>@@$$QAV<lambda_cc0d902bcbbeb830f749456577db4721>@@@Z 100192c0     libucrt:per_thread_data.obj
 0002:000062e0       __sehtable$??$?RV<lambda_3518db117f0e7cdb002338c5d3c47b6c>@@AAV<lambda_b2ea41f6bbb362cd97d94c6828d90b61>@@V<lambda_abdedf541bb04549bc734292b4a045d4>@@@?$__crt_seh_guarded_call@X@@QAEX$$QAV<lambda_3518db117f0e7cdb002338c5d3c47b6c>@@AAV<lambda_b2ea41f6bbb362cd97d94c6828d90b61>@@$$QAV<lambda_abdedf541bb04549bc734292b4a045d4>@@@Z 100192e0     libucrt:per_thread_data.obj
 0002:00006300       __sehtable$??$?RV<lambda_51b6e8b1eb166f2a3faf91f424b38130>@@AAV<lambda_6250bd4b2a391816dd638c3bf72b0bcb>@@V<lambda_0b5a4a3e68152e1d9b943535f5f47bed>@@@?$__crt_seh_guarded_call@X@@QAEX$$QAV<lambda_51b6e8b1eb166f2a3faf91f424b38130>@@AAV<lambda_6250bd4b2a391816dd638c3bf72b0bcb>@@$$QAV<lambda_0b5a4a3e68152e1d9b943535f5f47bed>@@@Z 10019300     libucrt:per_thread_data.obj
 0002:00006320       __sehtable$??$?RV<lambda_5b71d36f03204c0beab531769a5b5694>@@AAV<lambda_be2b3da3f62db62e9dad5dc70221a656>@@V<lambda_8f9ce462984622f9bf76b59e2aaaf805>@@@?$__crt_seh_guarded_call@X@@QAEX$$QAV<lambda_5b71d36f03204c0beab531769a5b5694>@@AAV<lambda_be2b3da3f62db62e9dad5dc70221a656>@@$$QAV<lambda_8f9ce462984622f9bf76b59e2aaaf805>@@@Z 10019320     libucrt:per_thread_data.obj
 0002:00006340       __sehtable$___acrt_uninitialize_locale 10019340     libucrt:wsetlocale.obj
 0002:00006360       __sehtable$___acrt_update_thread_multibyte_data 10019360     libucrt:mbctype.obj
 0002:00006380       __sehtable$??$?RV<lambda_978dc153c237d78434369da87b74ff60>@@AAV<lambda_ad1ced32f4ac17aa236e5ef05d6b3b7c>@@V<lambda_4a8533e2866a575feecb8298ce776b0d>@@@?$__crt_seh_guarded_call@X@@QAEX$$QAV<lambda_978dc153c237d78434369da87b74ff60>@@AAV<lambda_ad1ced32f4ac17aa236e5ef05d6b3b7c>@@$$QAV<lambda_4a8533e2866a575feecb8298ce776b0d>@@@Z 10019380     libucrt:mbctype.obj
 0002:000063a0       __sehtable$___acrt_initialize_lowio 100193a0     libucrt:ioinit.obj
 0002:000063c0       __sehtable$__query_new_handler 100193c0     libucrt:new_handler.obj
 0002:000063e0       __sehtable$__fcloseall     100193e0     libucrt:closeall.obj
 0002:00006400       __sehtable$??$?RV<lambda_61cee617f5178ae960314fd4d05640a0>@@AAV<lambda_6978c1fb23f02e42e1d9e99668cc68aa>@@V<lambda_9cd88cf8ad10232537feb2133f08c833>@@@?$__crt_seh_guarded_call@H@@QAEH$$QAV<lambda_61cee617f5178ae960314fd4d05640a0>@@AAV<lambda_6978c1fb23f02e42e1d9e99668cc68aa>@@$$QAV<lambda_9cd88cf8ad10232537feb2133f08c833>@@@Z 10019400     libucrt:commit.obj
 0002:00006420       __sehtable$__write         10019420     libucrt:write.obj
 0002:00006440       __sehtable$___acrt_update_thread_locale_data 10019440     libucrt:locale_refcounting.obj
 0002:00006460       __sehtable$___acrt_lowio_ensure_fh_exists 10019460     libucrt:osfinfo.obj
 0002:00006480       __sehtable$_fclose         10019480     libucrt:fclose.obj
 0002:000064a0       __sehtable$??$common_lseek@_J@@YA_JH_JH@Z 100194a0     libucrt:lseek.obj
 0002:000064c0       __sehtable$??$?RV<lambda_123407a5e2ac06da108355a851863b7a>@@AAV<lambda_2fe9b910cf3cbf4a0ab98a02ba45b3ec>@@V<lambda_ae55bdf541ad94d75914d381c370e64d>@@@?$__crt_seh_guarded_call@H@@QAEH$$QAV<lambda_123407a5e2ac06da108355a851863b7a>@@AAV<lambda_2fe9b910cf3cbf4a0ab98a02ba45b3ec>@@$$QAV<lambda_ae55bdf541ad94d75914d381c370e64d>@@@Z 100194c0     libucrt:close.obj
 0002:000064e0       __sehtable$__IsNonwritableInCurrentImage 100194e0     LIBCMT:pesect.obj
 0002:00006ee0       .edata                     10019ee0     rsa_keygen.exp
 0002:00006f08       rgpv                       10019f08     rsa_keygen.exp
 0002:00006f0c       rgszName                   10019f0c     rsa_keygen.exp
 0002:00006f10       rgwOrd                     10019f10     rsa_keygen.exp
 0002:00006f12       szName                     10019f12     rsa_keygen.exp
 0002:00006f22       $N00001                    10019f22     rsa_keygen.exp
 0002:0000709c       .idata$6                   1001a09c     kernel32:KERNEL32.dll
 0003:00000020       ?__vcrt_flsindex@@3KA      1001b020     libvcruntime:per_thread_data.obj
 0003:00000044       _errno_no_memory           1001b044     libucrt:errno.obj
 0003:00000048       _doserrno_no_memory        1001b048     libucrt:errno.obj
 0003:000000f8       ___acrt_flsindex           1001b0f8     libucrt:per_thread_data.obj
 0003:000001c4       ___rgctypeflag             1001b1c4     libucrt:mbctype.obj
 0003:000001c8       ___rgcode_page_info        1001b1c8     libucrt:mbctype.obj
 0003:000007a0       __module                   1001b7a0     rsa_keygen.obj
 0003:00000874       ?__proc_attached@@3HA      1001b874     LIBCMT:dll_dllmain.obj
 0003:00000878       _GS_ExceptionRecord        1001b878     LIBCMT:gs_report.obj
 0003:000008c8       _GS_ContextRecord          1001b8c8     LIBCMT:gs_report.obj
 0003:00000b9c       ?module_local_atexit_table@@3U_onexit_table_t@@A 1001bb9c     LIBCMT:utility.obj
 0003:00000ba8       ?module_local_at_quick_exit_table@@3U_onexit_table_t@@A 1001bba8     LIBCMT:utility.obj
 0003:00000bb4       ?is_initialized_as_dll@@3_NA 1001bbb4     LIBCMT:utility.obj
 0003:00000bdc       ?__vcrt_startup_thread_ptd@@3U__vcrt_ptd@@A 1001bbdc     libvcruntime:per_thread_data.obj
 0003:00000c04       ___vcrt_lock_table         1001bc04     libvcruntime:locks.obj
 0003:00000c1c       ___vcrt_locks_initialized  1001bc1c     libvcruntime:locks.obj
 0003:00000c20       ?module_handles@@3PAPAUHINSTANCE__@@A 1001bc20     libvcruntime:winapi_downlevel.obj
 0003:00000c30       ?encoded_function_pointers@@3PAPAXA 1001bc30     libvcruntime:winapi_downlevel.obj
 0003:00000c80       ?heap@@3V_HeapManager@@A   1001bc80     libvcruntime:undname.obj
 0003:00000c94       _c_termination_complete    1001bc94     libucrt:exit.obj
 0003:00000c98       _thread_local_exit_callback_func 1001bc98     libucrt:exit.obj
 0003:00000c9c       ?c_exit_complete@?5??common_exit@@YAXHW4_crt_exit_cleanup_mode@@W4_crt_exit_return_mode@@@Z@4_NA 1001bc9c     libucrt:exit.obj
 0003:00000ca0       ?program_name@?5???$common_configure_argv@D@@YAHW4_crt_argv_mode@@@Z@4PADA 1001bca0     libucrt:argv_parsing.obj
 0003:00000dd0       ___acrt_invalid_parameter_handler 1001bdd0     libucrt:invalid_parameter.obj
 0003:00000dd4       ___acrt_app_type           1001bdd4     libucrt:report_runtime_error.obj
 0003:00000dd8       ___acrt_error_mode         1001bdd8     libucrt:set_error_mode.obj
 0003:00000de8       _ctrlc_action              1001bde8     libucrt:signal.obj
 0003:00000dec       _ctrlbreak_action          1001bdec     libucrt:signal.obj
 0003:00000df0       _abort_action              1001bdf0     libucrt:signal.obj
 0003:00000df4       _term_action               1001bdf4     libucrt:signal.obj
 0003:00000e00       ___acrt_lock_table         1001be00     libucrt:locks.obj
 0003:00000f38       ___acrt_locks_initialized  1001bf38     libucrt:locks.obj
 0003:00000f40       _module_handles            1001bf40     libucrt:winapi_thunks.obj
 0003:00000f90       _encoded_function_pointers 1001bf90     libucrt:winapi_thunks.obj
 0003:00001010       ?state_cache@?1??__acrt_is_packaged_app@@9@4JA 1001c010     libucrt:winapi_thunks.obj
 0003:0000102c       _fSystemSet                1001c02c     libucrt:mbctype.obj
 0003:00001030       ?initialized@?1??__acrt_initialize_multibyte@@9@4_NA 1001c030     libucrt:mbctype.obj
 0003:00001254       ___acrt_new_handler        1001c254     libucrt:new_handler.obj
 0003:00001258       _user_matherr              1001c258     libucrt:matherr.obj
 0003:00001264       ___acrt_global_new_mode    1001c264     libucrt:new_mode.obj
 0003:00001268       _enable_percent_n          1001c268     libucrt:printf_count_output.obj
 0003:00001278       __pmatherr_set             1001c278     libucrt:libm_error.obj
 0004:00000000       __guard_fids____dcrt_uninitialize_environments_nolock 1001d000     libucrt:environment_initialization.obj
 0004:00000008       __guard_fids__             1001d008     libucrt:initialization.obj
 0004:00000068       __guard_fids_??$common_show_message_box@_W@@YAHQB_W0I@Z 1001d068     libucrt:crtmbox.obj
 0004:0000006c       __guard_fids____acrt_initialize_ptd 1001d06c     libucrt:per_thread_data.obj
 0004:00000070       __guard_fids_??$expand_argument_wildcards@D@@YAHQAD0AAV?$argument_list@D@?A0xb0e4b824@@@Z 1001d070     libucrt:argv_wildcards.obj
 0004:00000074       __guard_fids__             1001d074     libucrt:stdio_initializer.obj
 0004:00000078       __guard_fids__             1001d078     libucrt:stdio_initializer.obj
 0004:0000007c       __guard_fids__             1001d07c     libucrt:locale_initializer.obj
 0004:00000080       __guard_fids__             1001d080     libucrt:multibyte_initializer.obj
 0004:00000084       __guard_fids____libm_error_support 1001d084     libucrt:libm_error.obj
 0004:00000088       __guard_fids__             1001d088     libucrt:console_output_initializer.obj
 0004:0000008c       __guard_fids__             1001d08c     libucrt:sse2_initializer.obj
 0004:00000090       __guard_fids_?dllmain_crt_process_attach@@YAHQAUHINSTANCE__@@QAX@Z 1001d090     LIBCMT:dll_dllmain.obj
 0004:00000098       __guard_fids_?dllmain_dispatch@@YAHQAUHINSTANCE__@@KQAX@Z 1001d098     LIBCMT:dll_dllmain.obj
 0004:0000009c       __guard_fids__             1001d09c     LIBCMT:guard_support.obj
 0004:000000a0       __guard_fids____vcrt_initialize_ptd 1001d0a0     libvcruntime:per_thread_data.obj
 0005:00000060       $R000000                   1001e060     * linker generated manifest res *

 Exports

  ordinal    name

        1    __register_rsa_keygen_
               exported name: _register_rsa_keygen_
